GAS LISTING /tmp/ccfJqCRW.s 			page 1


   1              		.file	"operators.cpp"
   2              		.option pic
   3              		.option norelax
   4              		.text
   5              	.Ltext0:
   6              		.align	2
   7              		.globl	_Znwm
   9              	_Znwm:
  10              	.LFB21:
  11              		.file 1 "src/operators.cpp"
   1:src/operators.cpp **** //
   2:src/operators.cpp **** // Created by marko on 20.4.22..
   3:src/operators.cpp **** //
   4:src/operators.cpp **** 
   5:src/operators.cpp **** #include "../lib/mem.h"
   6:src/operators.cpp **** #include "../h/syscall_cpp.hpp"
   7:src/operators.cpp **** 
   8:src/operators.cpp **** using size_t = decltype(sizeof(0));
   9:src/operators.cpp **** 
  10:src/operators.cpp **** void *operator new(size_t n)
  11:src/operators.cpp **** {
  12              		.loc 1 11 1
  13              		.cfi_startproc
  14              	.LVL0:
  15 0000 130101FE 		addi	sp,sp,-32
  16              		.cfi_def_cfa_offset 32
  17 0004 233C1100 		sd	ra,24(sp)
  18 0008 23388100 		sd	s0,16(sp)
  19 000c 23349100 		sd	s1,8(sp)
  20              		.cfi_offset 1, -8
  21              		.cfi_offset 8, -16
  22              		.cfi_offset 9, -24
  23 0010 13040102 		addi	s0,sp,32
  24              		.cfi_def_cfa 8, 0
  25 0014 93040500 		mv	s1,a0
  12:src/operators.cpp **** 
  13:src/operators.cpp ****     void * res= MemoryAllocator::createAllocator()->alloc(n);
  26              		.loc 1 13 5
  27              		.loc 1 13 58 is_stmt 0
  28 0018 97000000 		call	_ZN15MemoryAllocator15createAllocatorEv@plt
  28      E7800000 
  29              	.LVL1:
  30 0020 93850400 		mv	a1,s1
  31 0024 97000000 		call	_ZN15MemoryAllocator5allocEm@plt
  31      E7800000 
  32              	.LVL2:
  14:src/operators.cpp ****     return res;
  33              		.loc 1 14 5 is_stmt 1
  15:src/operators.cpp **** }
  34              		.loc 1 15 1 is_stmt 0
  35 002c 83308101 		ld	ra,24(sp)
  36              		.cfi_restore 1
  37 0030 03340101 		ld	s0,16(sp)
  38              		.cfi_restore 8
  39              		.cfi_def_cfa 2, 32
  40 0034 83348100 		ld	s1,8(sp)
  41              		.cfi_restore 9
GAS LISTING /tmp/ccfJqCRW.s 			page 2


  42              	.LVL3:
  43 0038 13010102 		addi	sp,sp,32
  44              		.cfi_def_cfa_offset 0
  45 003c 67800000 		jr	ra
  46              		.cfi_endproc
  47              	.LFE21:
  49              		.align	2
  50              		.globl	_Znam
  52              	_Znam:
  53              	.LFB22:
  16:src/operators.cpp **** 
  17:src/operators.cpp **** void *operator new[](size_t n)
  18:src/operators.cpp **** {
  54              		.loc 1 18 1 is_stmt 1
  55              		.cfi_startproc
  56              	.LVL4:
  57 0040 130101FE 		addi	sp,sp,-32
  58              		.cfi_def_cfa_offset 32
  59 0044 233C1100 		sd	ra,24(sp)
  60 0048 23388100 		sd	s0,16(sp)
  61 004c 23349100 		sd	s1,8(sp)
  62              		.cfi_offset 1, -8
  63              		.cfi_offset 8, -16
  64              		.cfi_offset 9, -24
  65 0050 13040102 		addi	s0,sp,32
  66              		.cfi_def_cfa 8, 0
  67 0054 93040500 		mv	s1,a0
  19:src/operators.cpp ****     void * res= MemoryAllocator::createAllocator()->alloc(n);
  68              		.loc 1 19 5
  69              		.loc 1 19 58 is_stmt 0
  70 0058 97000000 		call	_ZN15MemoryAllocator15createAllocatorEv@plt
  70      E7800000 
  71              	.LVL5:
  72 0060 93850400 		mv	a1,s1
  73 0064 97000000 		call	_ZN15MemoryAllocator5allocEm@plt
  73      E7800000 
  74              	.LVL6:
  20:src/operators.cpp ****     return res;
  75              		.loc 1 20 5 is_stmt 1
  21:src/operators.cpp **** }
  76              		.loc 1 21 1 is_stmt 0
  77 006c 83308101 		ld	ra,24(sp)
  78              		.cfi_restore 1
  79 0070 03340101 		ld	s0,16(sp)
  80              		.cfi_restore 8
  81              		.cfi_def_cfa 2, 32
  82 0074 83348100 		ld	s1,8(sp)
  83              		.cfi_restore 9
  84              	.LVL7:
  85 0078 13010102 		addi	sp,sp,32
  86              		.cfi_def_cfa_offset 0
  87 007c 67800000 		jr	ra
  88              		.cfi_endproc
  89              	.LFE22:
  91              		.align	2
  92              		.globl	_ZdlPv
  94              	_ZdlPv:
GAS LISTING /tmp/ccfJqCRW.s 			page 3


  95              	.LFB23:
  22:src/operators.cpp **** 
  23:src/operators.cpp **** void operator delete(void *p) noexcept
  24:src/operators.cpp **** {
  96              		.loc 1 24 1 is_stmt 1
  97              		.cfi_startproc
  98              		.cfi_personality 0x9b,DW.ref.__gxx_personality_v0
  99              		.cfi_lsda 0x1b,.LLSDA23
 100              	.LVL8:
 101 0080 130101FE 		addi	sp,sp,-32
 102              		.cfi_def_cfa_offset 32
 103 0084 233C1100 		sd	ra,24(sp)
 104 0088 23388100 		sd	s0,16(sp)
 105 008c 23349100 		sd	s1,8(sp)
 106              		.cfi_offset 1, -8
 107              		.cfi_offset 8, -16
 108              		.cfi_offset 9, -24
 109 0090 13040102 		addi	s0,sp,32
 110              		.cfi_def_cfa 8, 0
 111 0094 93040500 		mv	s1,a0
  25:src/operators.cpp ****     MemoryAllocator::createAllocator()->dealloc(p);
 112              		.loc 1 25 5
 113              		.loc 1 25 48 is_stmt 0
 114 0098 97000000 		call	_ZN15MemoryAllocator15createAllocatorEv@plt
 114      E7800000 
 115              	.LVL9:
 116 00a0 93850400 		mv	a1,s1
 117 00a4 97000000 		call	_ZN15MemoryAllocator7deallocEPv@plt
 117      E7800000 
 118              	.LVL10:
  26:src/operators.cpp **** }
 119              		.loc 1 26 1
 120 00ac 83308101 		ld	ra,24(sp)
 121              		.cfi_restore 1
 122 00b0 03340101 		ld	s0,16(sp)
 123              		.cfi_restore 8
 124              		.cfi_def_cfa 2, 32
 125 00b4 83348100 		ld	s1,8(sp)
 126              		.cfi_restore 9
 127              	.LVL11:
 128 00b8 13010102 		addi	sp,sp,32
 129              		.cfi_def_cfa_offset 0
 130 00bc 67800000 		jr	ra
 131              		.cfi_endproc
 132              	.LFE23:
 133              		.globl	__gxx_personality_v0
 134              		.section	.gcc_except_table,"a",@progbits
 135              	.LLSDA23:
 136 0000 FF       		.byte	0xff
 137 0001 FF       		.byte	0xff
 138 0002 03       		.byte	0x3
 139 0003 00       		.byte	0
 140              		.text
 142              		.align	2
 143              		.globl	_ZdaPv
 145              	_ZdaPv:
 146              	.LFB24:
GAS LISTING /tmp/ccfJqCRW.s 			page 4


  27:src/operators.cpp **** 
  28:src/operators.cpp **** void operator delete[](void *p) noexcept
  29:src/operators.cpp **** {
 147              		.loc 1 29 1 is_stmt 1
 148              		.cfi_startproc
 149              		.cfi_personality 0x9b,DW.ref.__gxx_personality_v0
 150              		.cfi_lsda 0x1b,.LLSDA24
 151              	.LVL12:
 152 00c0 130101FE 		addi	sp,sp,-32
 153              		.cfi_def_cfa_offset 32
 154 00c4 233C1100 		sd	ra,24(sp)
 155 00c8 23388100 		sd	s0,16(sp)
 156 00cc 23349100 		sd	s1,8(sp)
 157              		.cfi_offset 1, -8
 158              		.cfi_offset 8, -16
 159              		.cfi_offset 9, -24
 160 00d0 13040102 		addi	s0,sp,32
 161              		.cfi_def_cfa 8, 0
 162 00d4 93040500 		mv	s1,a0
  30:src/operators.cpp ****     MemoryAllocator::createAllocator()->dealloc(p);
 163              		.loc 1 30 5
 164              		.loc 1 30 48 is_stmt 0
 165 00d8 97000000 		call	_ZN15MemoryAllocator15createAllocatorEv@plt
 165      E7800000 
 166              	.LVL13:
 167 00e0 93850400 		mv	a1,s1
 168 00e4 97000000 		call	_ZN15MemoryAllocator7deallocEPv@plt
 168      E7800000 
 169              	.LVL14:
  31:src/operators.cpp **** }...
 170              		.loc 1 31 1
 171 00ec 83308101 		ld	ra,24(sp)
 172              		.cfi_restore 1
 173 00f0 03340101 		ld	s0,16(sp)
 174              		.cfi_restore 8
 175              		.cfi_def_cfa 2, 32
 176 00f4 83348100 		ld	s1,8(sp)
 177              		.cfi_restore 9
 178              	.LVL15:
 179 00f8 13010102 		addi	sp,sp,32
 180              		.cfi_def_cfa_offset 0
 181 00fc 67800000 		jr	ra
 182              		.cfi_endproc
 183              	.LFE24:
 184              		.section	.gcc_except_table
 185              	.LLSDA24:
 186 0004 FF       		.byte	0xff
 187 0005 FF       		.byte	0xff
 188 0006 03       		.byte	0x3
 189 0007 00       		.byte	0
 190              		.text
 192              	.Letext0:
 193              		.file 2 "src/../lib/hw.h"
 194              		.file 3 "src/../h/../h/../h/../h/memallocator.hpp"
 1348              		.align	3
 1351              	DW.ref.__gxx_personality_v0:
 1352 0000 00000000 		.dword	__gxx_personality_v0
GAS LISTING /tmp/ccfJqCRW.s 			page 5


 1352      00000000 
 1353              		.ident	"GCC: (Ubuntu 9.4.0-1ubuntu1~20.04) 9.4.0"
 1354              		.section	.note.GNU-stack,"",@progbits
GAS LISTING /tmp/ccfJqCRW.s 			page 6

