GAS LISTING /tmp/ccyeCDOs.s 			page 1


   1              		.file	"syscall_c.cpp"
   2              		.option pic
   3              		.option norelax
   4              		.text
   5              	.Ltext0:
   6              		.align	2
   7              		.globl	_Z9mem_allocm
   9              	_Z9mem_allocm:
  10              	.LFB24:
  11              		.file 1 "src/syscall_c.cpp"
   1:src/syscall_c.cpp **** //
   2:src/syscall_c.cpp **** // Created by os on 3/3/25.
   3:src/syscall_c.cpp **** //
   4:src/syscall_c.cpp **** 
   5:src/syscall_c.cpp **** #include "../h/syscall_c.hpp"
   6:src/syscall_c.cpp **** #include "../h/SemaforKernel.hpp"
   7:src/syscall_c.cpp **** #include "../test/printing.hpp"
   8:src/syscall_c.cpp **** #include "../lib/mem.h"
   9:src/syscall_c.cpp **** 
  10:src/syscall_c.cpp **** 
  11:src/syscall_c.cpp **** void* mem_alloc(size_t size){
  12              		.loc 1 11 29
  13              		.cfi_startproc
  14              	.LVL0:
  15 0000 130101FE 		addi	sp,sp,-32
  16              		.cfi_def_cfa_offset 32
  17 0004 233C8100 		sd	s0,24(sp)
  18              		.cfi_offset 8, -8
  19 0008 13040102 		addi	s0,sp,32
  20              		.cfi_def_cfa 8, 0
  12:src/syscall_c.cpp ****     size_t volatile num=(size+MEM_BLOCK_SIZE-1)/MEM_BLOCK_SIZE;
  21              		.loc 1 12 5
  22              		.loc 1 12 45 is_stmt 0
  23 000c 1305F503 		addi	a0,a0,63
  24              	.LVL1:
  25              		.loc 1 12 48
  26 0010 13556500 		srli	a0,a0,6
  27              	.LVL2:
  28              		.loc 1 12 21
  29 0014 2334A4FE 		sd	a0,-24(s0)
  13:src/syscall_c.cpp ****     uint64 volatile code=0x01;
  30              		.loc 1 13 5 is_stmt 1
  31              		.loc 1 13 21 is_stmt 0
  32 0018 93071000 		li	a5,1
  33 001c 2330F4FE 		sd	a5,-32(s0)
  14:src/syscall_c.cpp **** 
  15:src/syscall_c.cpp ****     __asm__ volatile("mv a0, %0" : : "r" (code));
  34              		.loc 1 15 5 is_stmt 1
  35              		.loc 1 15 43 is_stmt 0
  36 0020 833704FE 		ld	a5,-32(s0)
  37              		.loc 1 15 49
  38              	#APP
  39              	# 15 "src/syscall_c.cpp" 1
  16              	    __asm__ volatile("mv a1, %0" : : "r" (num));
  40              		mv a0, a5
  41              	# 0 "" 2
  42              		.loc 1 16 5 is_stmt 1
GAS LISTING /tmp/ccyeCDOs.s 			page 2


  43              		.loc 1 16 43 is_stmt 0
  44              	#NO_APP
  45 0028 833784FE 		ld	a5,-24(s0)
  46              		.loc 1 16 48
  47              	#APP
  48              	# 16 "src/syscall_c.cpp" 1
  17              	
  18:src/syscall_c.cpp ****     __asm__ volatile("ecall");
  49              		mv a1, a5
  50              	# 0 "" 2
  51              		.loc 1 18 5 is_stmt 1
  52              		.loc 1 18 30 is_stmt 0
  53              	# 18 "src/syscall_c.cpp" 1
  19              	
  20:src/syscall_c.cpp ****     void *ret;
  54              		ecall
  55              	# 0 "" 2
  56              		.loc 1 20 5 is_stmt 1
  21:src/syscall_c.cpp ****     __asm__ volatile("mv %0, a0" : "=r" (ret));
  57              		.loc 1 21 5
  58              		.loc 1 21 47 is_stmt 0
  59              	# 21 "src/syscall_c.cpp" 1
  22              	    return ret;
  60              		mv a0, a0
  61              	# 0 "" 2
  62              	.LVL3:
  63              		.loc 1 22 5 is_stmt 1
  23:src/syscall_c.cpp **** }
  64              		.loc 1 23 1 is_stmt 0
  65              	#NO_APP
  66 0038 03348101 		ld	s0,24(sp)
  67              		.cfi_restore 8
  68              		.cfi_def_cfa 2, 32
  69 003c 13010102 		addi	sp,sp,32
  70              		.cfi_def_cfa_offset 0
  71 0040 67800000 		jr	ra
  72              		.cfi_endproc
  73              	.LFE24:
  75              		.align	2
  76              		.globl	_Z8mem_freePv
  78              	_Z8mem_freePv:
  79              	.LFB25:
  24:src/syscall_c.cpp **** 
  25:src/syscall_c.cpp **** int mem_free(void* addr){
  80              		.loc 1 25 25 is_stmt 1
  81              		.cfi_startproc
  82              	.LVL4:
  83 0044 130101FE 		addi	sp,sp,-32
  84              		.cfi_def_cfa_offset 32
  85 0048 233C8100 		sd	s0,24(sp)
  86              		.cfi_offset 8, -8
  87 004c 13040102 		addi	s0,sp,32
  88              		.cfi_def_cfa 8, 0
  26:src/syscall_c.cpp **** 
  27:src/syscall_c.cpp ****     uint64 volatile code=0x01;
  89              		.loc 1 27 5
  90              		.loc 1 27 21 is_stmt 0
GAS LISTING /tmp/ccyeCDOs.s 			page 3


  91 0050 93071000 		li	a5,1
  92 0054 2334F4FE 		sd	a5,-24(s0)
  28:src/syscall_c.cpp ****     uint64 volatile add=(uint64)addr;
  93              		.loc 1 28 5 is_stmt 1
  94              		.loc 1 28 21 is_stmt 0
  95 0058 2330A4FE 		sd	a0,-32(s0)
  29:src/syscall_c.cpp **** 
  30:src/syscall_c.cpp ****     __asm__ volatile("mv a0, %0" : : "r" (code));
  96              		.loc 1 30 5 is_stmt 1
  97              		.loc 1 30 43 is_stmt 0
  98 005c 833784FE 		ld	a5,-24(s0)
  99              		.loc 1 30 49
 100              	#APP
 101              	# 30 "src/syscall_c.cpp" 1
  31              	    __asm__ volatile("mv a1, %0" : : "r" (add));
 102              		mv a0, a5
 103              	# 0 "" 2
 104              		.loc 1 31 5 is_stmt 1
 105              		.loc 1 31 43 is_stmt 0
 106              	#NO_APP
 107 0064 833704FE 		ld	a5,-32(s0)
 108              		.loc 1 31 48
 109              	#APP
 110              	# 31 "src/syscall_c.cpp" 1
  32              	
  33:src/syscall_c.cpp ****     __asm__ volatile("ecall");
 111              		mv a1, a5
 112              	# 0 "" 2
 113              		.loc 1 33 5 is_stmt 1
 114              		.loc 1 33 30 is_stmt 0
 115              	# 33 "src/syscall_c.cpp" 1
  34              	
  35:src/syscall_c.cpp ****     int ret;
 116              		ecall
 117              	# 0 "" 2
 118              		.loc 1 35 5 is_stmt 1
  36:src/syscall_c.cpp ****     __asm__ volatile("mv %0, a0" : "=r" (ret));
 119              		.loc 1 36 5
 120              		.loc 1 36 47 is_stmt 0
 121              	# 36 "src/syscall_c.cpp" 1
  37              	    return ret;
 122              		mv a0, a0
 123              	# 0 "" 2
 124              	.LVL5:
 125              		.loc 1 37 5 is_stmt 1
  38:src/syscall_c.cpp **** }
 126              		.loc 1 38 1 is_stmt 0
 127              	#NO_APP
 128 0074 1B050500 		sext.w	a0,a0
 129 0078 03348101 		ld	s0,24(sp)
 130              		.cfi_restore 8
 131              		.cfi_def_cfa 2, 32
 132 007c 13010102 		addi	sp,sp,32
 133              		.cfi_def_cfa_offset 0
 134              	.LVL6:
 135 0080 67800000 		jr	ra
 136              		.cfi_endproc
GAS LISTING /tmp/ccyeCDOs.s 			page 4


 137              	.LFE25:
 139              		.align	2
 140              		.globl	_Z13thread_createPP3TCBPFvPvES2_
 142              	_Z13thread_createPP3TCBPFvPvES2_:
 143              	.LFB26:
  39:src/syscall_c.cpp **** 
  40:src/syscall_c.cpp **** 
  41:src/syscall_c.cpp **** int thread_create(thread_t* handle,void(*start_routine)(void*), void* arg) {
 144              		.loc 1 41 76 is_stmt 1
 145              		.cfi_startproc
 146              	.LVL7:
 147 0084 130101FC 		addi	sp,sp,-64
 148              		.cfi_def_cfa_offset 64
 149 0088 233C1102 		sd	ra,56(sp)
 150 008c 23388102 		sd	s0,48(sp)
 151              		.cfi_offset 1, -8
 152              		.cfi_offset 8, -16
 153 0090 13040104 		addi	s0,sp,64
 154              		.cfi_def_cfa 8, 0
  42:src/syscall_c.cpp **** 
  43:src/syscall_c.cpp ****   uint64 volatile code=0x11;
 155              		.loc 1 43 3
 156              		.loc 1 43 19 is_stmt 0
 157 0094 93071001 		li	a5,17
 158 0098 2334F4FE 		sd	a5,-24(s0)
  44:src/syscall_c.cpp ****   uint64 volatile  handleC=(uint64)handle;
 159              		.loc 1 44 3 is_stmt 1
 160              		.loc 1 44 20 is_stmt 0
 161 009c 2330A4FE 		sd	a0,-32(s0)
  45:src/syscall_c.cpp ****   uint64 volatile functionC=(uint64)start_routine;
 162              		.loc 1 45 3 is_stmt 1
 163              		.loc 1 45 19 is_stmt 0
 164 00a0 233CB4FC 		sd	a1,-40(s0)
  46:src/syscall_c.cpp ****   uint64 volatile  argC=(uint64)arg;
 165              		.loc 1 46 3 is_stmt 1
 166              		.loc 1 46 20 is_stmt 0
 167 00a4 2338C4FC 		sd	a2,-48(s0)
  47:src/syscall_c.cpp ****   uint64* volatile stack=new uint64[TCB::STACK_SIZE];
 168              		.loc 1 47 3 is_stmt 1
 169              		.loc 1 47 52 is_stmt 0
 170 00a8 37250000 		li	a0,8192
 171              	.LVL8:
 172 00ac 97000000 		call	_Znam@plt
 172      E7800000 
 173              	.LVL9:
 174 00b4 2334A4FC 		sd	a0,-56(s0)
 175              	.LVL10:
  48:src/syscall_c.cpp **** 
  49:src/syscall_c.cpp **** 
  50:src/syscall_c.cpp ****   __asm__ volatile("mv a0, %0" : : "r" (code));
 176              		.loc 1 50 3 is_stmt 1
 177              		.loc 1 50 41 is_stmt 0
 178 00b8 833784FE 		ld	a5,-24(s0)
 179              		.loc 1 50 47
 180              	#APP
 181              	# 50 "src/syscall_c.cpp" 1
  51              	  __asm__ volatile("mv a1, %0" : : "r" (handleC));
GAS LISTING /tmp/ccyeCDOs.s 			page 5


 182              		mv a0, a5
 183              	# 0 "" 2
 184              		.loc 1 51 3 is_stmt 1
 185              		.loc 1 51 41 is_stmt 0
 186              	#NO_APP
 187 00c0 833704FE 		ld	a5,-32(s0)
 188              		.loc 1 51 50
 189              	#APP
 190              	# 51 "src/syscall_c.cpp" 1
  52              	  __asm__ volatile("mv a2, %0" : : "r" (functionC));
 191              		mv a1, a5
 192              	# 0 "" 2
 193              		.loc 1 52 3 is_stmt 1
 194              		.loc 1 52 41 is_stmt 0
 195              	#NO_APP
 196 00c8 833784FD 		ld	a5,-40(s0)
 197              		.loc 1 52 52
 198              	#APP
 199              	# 52 "src/syscall_c.cpp" 1
  53              	   __asm__ volatile("mv a3, %0" : : "r" (argC));
 200              		mv a2, a5
 201              	# 0 "" 2
 202              		.loc 1 53 4 is_stmt 1
 203              		.loc 1 53 42 is_stmt 0
 204              	#NO_APP
 205 00d0 833704FD 		ld	a5,-48(s0)
 206              		.loc 1 53 48
 207              	#APP
 208              	# 53 "src/syscall_c.cpp" 1
  54              	   __asm__ volatile("mv a4, %[stackp]" : : [stackp] "r" ((uint64)stack));
 209              		mv a3, a5
 210              	# 0 "" 2
 211              		.loc 1 54 4 is_stmt 1
 212              		.loc 1 54 73 is_stmt 0
 213              	#NO_APP
 214 00d8 833784FC 		ld	a5,-56(s0)
 215              	#APP
 216              	# 54 "src/syscall_c.cpp" 1
  55              	
  56:src/syscall_c.cpp ****   __asm__ volatile("ecall");
 217              		mv a4, a5
 218              	# 0 "" 2
 219              		.loc 1 56 3 is_stmt 1
 220              		.loc 1 56 28 is_stmt 0
 221              	# 56 "src/syscall_c.cpp" 1
  57              	
  58:src/syscall_c.cpp ****     int ret;
 222              		ecall
 223              	# 0 "" 2
 224              		.loc 1 58 5 is_stmt 1
  59:src/syscall_c.cpp ****     __asm__ volatile("mv %0, a0" : "=r" (ret));
 225              		.loc 1 59 5
 226              		.loc 1 59 47 is_stmt 0
 227              	# 59 "src/syscall_c.cpp" 1
  60              	    return ret;
 228              		mv a0, a0
 229              	# 0 "" 2
GAS LISTING /tmp/ccyeCDOs.s 			page 6


 230              	.LVL11:
 231              		.loc 1 60 5 is_stmt 1
  61:src/syscall_c.cpp **** 
  62:src/syscall_c.cpp **** }
 232              		.loc 1 62 1 is_stmt 0
 233              	#NO_APP
 234 00e8 1B050500 		sext.w	a0,a0
 235 00ec 83308103 		ld	ra,56(sp)
 236              		.cfi_restore 1
 237 00f0 03340103 		ld	s0,48(sp)
 238              		.cfi_restore 8
 239              		.cfi_def_cfa 2, 64
 240 00f4 13010104 		addi	sp,sp,64
 241              		.cfi_def_cfa_offset 0
 242 00f8 67800000 		jr	ra
 243              		.cfi_endproc
 244              	.LFE26:
 246              		.align	2
 247              		.globl	_Z11thread_exitv
 249              	_Z11thread_exitv:
 250              	.LFB27:
  63:src/syscall_c.cpp **** 
  64:src/syscall_c.cpp **** int thread_exit(){
 251              		.loc 1 64 18 is_stmt 1
 252              		.cfi_startproc
 253 00fc 130101FE 		addi	sp,sp,-32
 254              		.cfi_def_cfa_offset 32
 255 0100 233C8100 		sd	s0,24(sp)
 256              		.cfi_offset 8, -8
 257 0104 13040102 		addi	s0,sp,32
 258              		.cfi_def_cfa 8, 0
  65:src/syscall_c.cpp ****     uint64  volatile code=0x12;
 259              		.loc 1 65 5
 260              		.loc 1 65 22 is_stmt 0
 261 0108 93072001 		li	a5,18
 262 010c 2334F4FE 		sd	a5,-24(s0)
  66:src/syscall_c.cpp **** 
  67:src/syscall_c.cpp ****     __asm__ volatile("mv a0, %0" : : "r" (code));
 263              		.loc 1 67 5 is_stmt 1
 264              		.loc 1 67 43 is_stmt 0
 265 0110 833784FE 		ld	a5,-24(s0)
 266              		.loc 1 67 49
 267              	#APP
 268              	# 67 "src/syscall_c.cpp" 1
  68              	
  69:src/syscall_c.cpp ****     __asm__ volatile("ecall");
 269              		mv a0, a5
 270              	# 0 "" 2
 271              		.loc 1 69 5 is_stmt 1
 272              		.loc 1 69 30 is_stmt 0
 273              	# 69 "src/syscall_c.cpp" 1
  70              	
  71:src/syscall_c.cpp ****     int ret;
 274              		ecall
 275              	# 0 "" 2
 276              		.loc 1 71 5 is_stmt 1
  72:src/syscall_c.cpp ****     __asm__ volatile("mv %0, a0" : "=r" (ret));
GAS LISTING /tmp/ccyeCDOs.s 			page 7


 277              		.loc 1 72 5
 278              		.loc 1 72 47 is_stmt 0
 279              	# 72 "src/syscall_c.cpp" 1
  73              	    return ret;
 280              		mv a0, a0
 281              	# 0 "" 2
 282              	.LVL12:
 283              		.loc 1 73 5 is_stmt 1
  74:src/syscall_c.cpp **** 
  75:src/syscall_c.cpp **** }
 284              		.loc 1 75 1 is_stmt 0
 285              	#NO_APP
 286 0120 1B050500 		sext.w	a0,a0
 287 0124 03348101 		ld	s0,24(sp)
 288              		.cfi_restore 8
 289              		.cfi_def_cfa 2, 32
 290 0128 13010102 		addi	sp,sp,32
 291              		.cfi_def_cfa_offset 0
 292 012c 67800000 		jr	ra
 293              		.cfi_endproc
 294              	.LFE27:
 296              		.align	2
 297              		.globl	_Z15thread_dispatchv
 299              	_Z15thread_dispatchv:
 300              	.LFB28:
  76:src/syscall_c.cpp **** 
  77:src/syscall_c.cpp **** void thread_dispatch(){
 301              		.loc 1 77 23 is_stmt 1
 302              		.cfi_startproc
 303 0130 130101FE 		addi	sp,sp,-32
 304              		.cfi_def_cfa_offset 32
 305 0134 233C8100 		sd	s0,24(sp)
 306              		.cfi_offset 8, -8
 307 0138 13040102 		addi	s0,sp,32
 308              		.cfi_def_cfa 8, 0
  78:src/syscall_c.cpp ****     uint64 volatile code=0x13;
 309              		.loc 1 78 5
 310              		.loc 1 78 21 is_stmt 0
 311 013c 93073001 		li	a5,19
 312 0140 2334F4FE 		sd	a5,-24(s0)
  79:src/syscall_c.cpp **** 
  80:src/syscall_c.cpp ****     __asm__ volatile("mv a0, %0" : : "r" (code));
 313              		.loc 1 80 5 is_stmt 1
 314              		.loc 1 80 43 is_stmt 0
 315 0144 833784FE 		ld	a5,-24(s0)
 316              		.loc 1 80 49
 317              	#APP
 318              	# 80 "src/syscall_c.cpp" 1
  81              	
  82:src/syscall_c.cpp ****     __asm__ volatile("ecall");
 319              		mv a0, a5
 320              	# 0 "" 2
 321              		.loc 1 82 5 is_stmt 1
 322              		.loc 1 82 30 is_stmt 0
 323              	# 82 "src/syscall_c.cpp" 1
  83              	
  84:src/syscall_c.cpp **** }
GAS LISTING /tmp/ccyeCDOs.s 			page 8


 324              		ecall
 325              	# 0 "" 2
 326              		.loc 1 84 1
 327              	#NO_APP
 328 0150 03348101 		ld	s0,24(sp)
 329              		.cfi_restore 8
 330              		.cfi_def_cfa 2, 32
 331 0154 13010102 		addi	sp,sp,32
 332              		.cfi_def_cfa_offset 0
 333 0158 67800000 		jr	ra
 334              		.cfi_endproc
 335              	.LFE28:
 337              		.align	2
 338              		.globl	_Z8sem_openPP13SemaforKernelj
 340              	_Z8sem_openPP13SemaforKernelj:
 341              	.LFB29:
  85:src/syscall_c.cpp **** 
  86:src/syscall_c.cpp **** int sem_open (sem_t* handle, unsigned init){
 342              		.loc 1 86 44 is_stmt 1
 343              		.cfi_startproc
 344              	.LVL13:
 345 015c 130101FD 		addi	sp,sp,-48
 346              		.cfi_def_cfa_offset 48
 347 0160 23348102 		sd	s0,40(sp)
 348              		.cfi_offset 8, -8
 349 0164 13040103 		addi	s0,sp,48
 350              		.cfi_def_cfa 8, 0
  87:src/syscall_c.cpp ****   uint64 volatile code=0x21;
 351              		.loc 1 87 3
 352              		.loc 1 87 19 is_stmt 0
 353 0168 93071002 		li	a5,33
 354 016c 2334F4FE 		sd	a5,-24(s0)
  88:src/syscall_c.cpp ****   uint64 volatile handleC=(uint64)handle;
 355              		.loc 1 88 3 is_stmt 1
 356              		.loc 1 88 19 is_stmt 0
 357 0170 2330A4FE 		sd	a0,-32(s0)
  89:src/syscall_c.cpp ****   uint64 volatile initC=(uint64)init;
 358              		.loc 1 89 3 is_stmt 1
 359              		.loc 1 89 25 is_stmt 0
 360 0174 93950502 		slli	a1,a1,32
 361              	.LVL14:
 362 0178 93D50502 		srli	a1,a1,32
 363              		.loc 1 89 19
 364 017c 233CB4FC 		sd	a1,-40(s0)
  90:src/syscall_c.cpp **** 
  91:src/syscall_c.cpp ****     __asm__ volatile("mv a0, %0" : : "r" (code));
 365              		.loc 1 91 5 is_stmt 1
 366              		.loc 1 91 43 is_stmt 0
 367 0180 833784FE 		ld	a5,-24(s0)
 368              		.loc 1 91 49
 369              	#APP
 370              	# 91 "src/syscall_c.cpp" 1
  92              	    __asm__ volatile("mv a1, %0" : : "r" (handleC));
 371              		mv a0, a5
 372              	# 0 "" 2
 373              		.loc 1 92 5 is_stmt 1
 374              		.loc 1 92 43 is_stmt 0
GAS LISTING /tmp/ccyeCDOs.s 			page 9


 375              	#NO_APP
 376 0188 833704FE 		ld	a5,-32(s0)
 377              		.loc 1 92 52
 378              	#APP
 379              	# 92 "src/syscall_c.cpp" 1
  93              	    __asm__ volatile("mv a2, %0" : : "r" (initC));
 380              		mv a1, a5
 381              	# 0 "" 2
 382              		.loc 1 93 5 is_stmt 1
 383              		.loc 1 93 43 is_stmt 0
 384              	#NO_APP
 385 0190 833784FD 		ld	a5,-40(s0)
 386              		.loc 1 93 50
 387              	#APP
 388              	# 93 "src/syscall_c.cpp" 1
  94              	
  95:src/syscall_c.cpp ****     __asm__ volatile("ecall");
 389              		mv a2, a5
 390              	# 0 "" 2
 391              		.loc 1 95 5 is_stmt 1
 392              		.loc 1 95 30 is_stmt 0
 393              	# 95 "src/syscall_c.cpp" 1
  96              	
  97:src/syscall_c.cpp ****     int ret;
 394              		ecall
 395              	# 0 "" 2
 396              		.loc 1 97 5 is_stmt 1
  98:src/syscall_c.cpp ****     __asm__ volatile("mv %0, a0" : "=r" (ret));
 397              		.loc 1 98 5
 398              		.loc 1 98 47 is_stmt 0
 399              	# 98 "src/syscall_c.cpp" 1
  99              	    return ret;
 400              		mv a0, a0
 401              	# 0 "" 2
 402              	.LVL15:
 403              		.loc 1 99 5 is_stmt 1
 100:src/syscall_c.cpp **** 
 101:src/syscall_c.cpp **** }
 404              		.loc 1 101 1 is_stmt 0
 405              	#NO_APP
 406 01a0 1B050500 		sext.w	a0,a0
 407 01a4 03348102 		ld	s0,40(sp)
 408              		.cfi_restore 8
 409              		.cfi_def_cfa 2, 48
 410 01a8 13010103 		addi	sp,sp,48
 411              		.cfi_def_cfa_offset 0
 412 01ac 67800000 		jr	ra
 413              		.cfi_endproc
 414              	.LFE29:
 416              		.align	2
 417              		.globl	_Z9sem_closeP13SemaforKernel
 419              	_Z9sem_closeP13SemaforKernel:
 420              	.LFB30:
 102:src/syscall_c.cpp **** 
 103:src/syscall_c.cpp **** int sem_close (sem_t handle){
 421              		.loc 1 103 29 is_stmt 1
 422              		.cfi_startproc
GAS LISTING /tmp/ccyeCDOs.s 			page 10


 423              	.LVL16:
 104:src/syscall_c.cpp ****   if(!handle) return -1;
 424              		.loc 1 104 3
 425 01b0 63020504 		beqz	a0,.L15
 103:src/syscall_c.cpp ****   if(!handle) return -1;
 426              		.loc 1 103 29 is_stmt 0
 427 01b4 130101FE 		addi	sp,sp,-32
 428              		.cfi_def_cfa_offset 32
 429 01b8 233C8100 		sd	s0,24(sp)
 430              		.cfi_offset 8, -8
 431 01bc 13040102 		addi	s0,sp,32
 432              		.cfi_def_cfa 8, 0
 105:src/syscall_c.cpp **** 
 106:src/syscall_c.cpp ****   uint64 volatile code=0x22;
 433              		.loc 1 106 3 is_stmt 1
 434              		.loc 1 106 19 is_stmt 0
 435 01c0 93072002 		li	a5,34
 436 01c4 2334F4FE 		sd	a5,-24(s0)
 107:src/syscall_c.cpp ****   uint64 volatile handleC=(uint64)handle;
 437              		.loc 1 107 3 is_stmt 1
 438              		.loc 1 107 19 is_stmt 0
 439 01c8 2330A4FE 		sd	a0,-32(s0)
 108:src/syscall_c.cpp **** 
 109:src/syscall_c.cpp ****     __asm__ volatile("mv a0, %0" : : "r" (code));
 440              		.loc 1 109 5 is_stmt 1
 441              		.loc 1 109 43 is_stmt 0
 442 01cc 833784FE 		ld	a5,-24(s0)
 443              		.loc 1 109 49
 444              	#APP
 445              	# 109 "src/syscall_c.cpp" 1
 110              	    __asm__ volatile("mv a1, %0" : : "r" (handleC));
 446              		mv a0, a5
 447              	# 0 "" 2
 448              		.loc 1 110 5 is_stmt 1
 449              		.loc 1 110 43 is_stmt 0
 450              	#NO_APP
 451 01d4 833704FE 		ld	a5,-32(s0)
 452              		.loc 1 110 52
 453              	#APP
 454              	# 110 "src/syscall_c.cpp" 1
 111              	
 112:src/syscall_c.cpp ****     __asm__ volatile("ecall");
 455              		mv a1, a5
 456              	# 0 "" 2
 457              		.loc 1 112 5 is_stmt 1
 458              		.loc 1 112 30 is_stmt 0
 459              	# 112 "src/syscall_c.cpp" 1
 113              	
 114:src/syscall_c.cpp ****     int ret;
 460              		ecall
 461              	# 0 "" 2
 462              		.loc 1 114 5 is_stmt 1
 115:src/syscall_c.cpp ****     __asm__ volatile("mv %0, a0" : "=r" (ret));
 463              		.loc 1 115 5
 464              		.loc 1 115 47 is_stmt 0
 465              	# 115 "src/syscall_c.cpp" 1
 116              	    return ret;
GAS LISTING /tmp/ccyeCDOs.s 			page 11


 466              		mv a0, a0
 467              	# 0 "" 2
 468              	.LVL17:
 469              	#NO_APP
 470 01e4 1B050500 		sext.w	a0,a0
 471              	.LVL18:
 472              		.loc 1 116 5 is_stmt 1
 117:src/syscall_c.cpp **** 
 118:src/syscall_c.cpp **** }
 473              		.loc 1 118 1 is_stmt 0
 474 01e8 03348101 		ld	s0,24(sp)
 475              		.cfi_restore 8
 476              		.cfi_def_cfa 2, 32
 477 01ec 13010102 		addi	sp,sp,32
 478              		.cfi_def_cfa_offset 0
 479              	.LVL19:
 480 01f0 67800000 		jr	ra
 481              	.LVL20:
 482              	.L15:
 104:src/syscall_c.cpp **** 
 483              		.loc 1 104 23
 484 01f4 1305F0FF 		li	a0,-1
 485              	.LVL21:
 486              		.loc 1 118 1
 487 01f8 67800000 		ret
 488              		.cfi_endproc
 489              	.LFE30:
 491              		.align	2
 492              		.globl	_Z8sem_waitP13SemaforKernel
 494              	_Z8sem_waitP13SemaforKernel:
 495              	.LFB31:
 119:src/syscall_c.cpp **** 
 120:src/syscall_c.cpp **** int sem_wait (sem_t id){
 496              		.loc 1 120 24 is_stmt 1
 497              		.cfi_startproc
 498              	.LVL22:
 121:src/syscall_c.cpp ****   if(!id) return -1;
 499              		.loc 1 121 3
 500 01fc 63020504 		beqz	a0,.L22
 120:src/syscall_c.cpp ****   if(!id) return -1;
 501              		.loc 1 120 24 is_stmt 0
 502 0200 130101FE 		addi	sp,sp,-32
 503              		.cfi_def_cfa_offset 32
 504 0204 233C8100 		sd	s0,24(sp)
 505              		.cfi_offset 8, -8
 506 0208 13040102 		addi	s0,sp,32
 507              		.cfi_def_cfa 8, 0
 122:src/syscall_c.cpp **** 
 123:src/syscall_c.cpp ****   uint64 volatile code=0x23;
 508              		.loc 1 123 3 is_stmt 1
 509              		.loc 1 123 19 is_stmt 0
 510 020c 93073002 		li	a5,35
 511 0210 2334F4FE 		sd	a5,-24(s0)
 124:src/syscall_c.cpp ****   uint64 volatile handleC=(uint64)id;
 512              		.loc 1 124 3 is_stmt 1
 513              		.loc 1 124 19 is_stmt 0
 514 0214 2330A4FE 		sd	a0,-32(s0)
GAS LISTING /tmp/ccyeCDOs.s 			page 12


 125:src/syscall_c.cpp **** 
 126:src/syscall_c.cpp ****   __asm__ volatile("mv a0, %0" : : "r" (code));
 515              		.loc 1 126 3 is_stmt 1
 516              		.loc 1 126 41 is_stmt 0
 517 0218 833784FE 		ld	a5,-24(s0)
 518              		.loc 1 126 47
 519              	#APP
 520              	# 126 "src/syscall_c.cpp" 1
 127              	  __asm__ volatile("mv a1, %0" : : "r" (handleC));
 521              		mv a0, a5
 522              	# 0 "" 2
 523              		.loc 1 127 3 is_stmt 1
 524              		.loc 1 127 41 is_stmt 0
 525              	#NO_APP
 526 0220 833704FE 		ld	a5,-32(s0)
 527              		.loc 1 127 50
 528              	#APP
 529              	# 127 "src/syscall_c.cpp" 1
 128              	
 129:src/syscall_c.cpp ****   __asm__ volatile("ecall");
 530              		mv a1, a5
 531              	# 0 "" 2
 532              		.loc 1 129 3 is_stmt 1
 533              		.loc 1 129 28 is_stmt 0
 534              	# 129 "src/syscall_c.cpp" 1
 130              	
 131:src/syscall_c.cpp ****   int ret;
 535              		ecall
 536              	# 0 "" 2
 537              		.loc 1 131 3 is_stmt 1
 132:src/syscall_c.cpp ****   __asm__ volatile("mv %0, a0" : "=r" (ret));
 538              		.loc 1 132 3
 539              		.loc 1 132 45 is_stmt 0
 540              	# 132 "src/syscall_c.cpp" 1
 133              	  return ret;
 541              		mv a0, a0
 542              	# 0 "" 2
 543              	.LVL23:
 544              	#NO_APP
 545 0230 1B050500 		sext.w	a0,a0
 546              	.LVL24:
 547              		.loc 1 133 3 is_stmt 1
 134:src/syscall_c.cpp **** 
 135:src/syscall_c.cpp **** }
 548              		.loc 1 135 1 is_stmt 0
 549 0234 03348101 		ld	s0,24(sp)
 550              		.cfi_restore 8
 551              		.cfi_def_cfa 2, 32
 552 0238 13010102 		addi	sp,sp,32
 553              		.cfi_def_cfa_offset 0
 554              	.LVL25:
 555 023c 67800000 		jr	ra
 556              	.LVL26:
 557              	.L22:
 121:src/syscall_c.cpp **** 
 558              		.loc 1 121 19
 559 0240 1305F0FF 		li	a0,-1
GAS LISTING /tmp/ccyeCDOs.s 			page 13


 560              	.LVL27:
 561              		.loc 1 135 1
 562 0244 67800000 		ret
 563              		.cfi_endproc
 564              	.LFE31:
 566              		.align	2
 567              		.globl	_Z10sem_signalP13SemaforKernel
 569              	_Z10sem_signalP13SemaforKernel:
 570              	.LFB32:
 136:src/syscall_c.cpp **** 
 137:src/syscall_c.cpp **** int sem_signal (sem_t id){
 571              		.loc 1 137 26 is_stmt 1
 572              		.cfi_startproc
 573              	.LVL28:
 138:src/syscall_c.cpp ****   if(!id) return -1;
 574              		.loc 1 138 3
 575 0248 63020504 		beqz	a0,.L29
 137:src/syscall_c.cpp ****   if(!id) return -1;
 576              		.loc 1 137 26 is_stmt 0
 577 024c 130101FE 		addi	sp,sp,-32
 578              		.cfi_def_cfa_offset 32
 579 0250 233C8100 		sd	s0,24(sp)
 580              		.cfi_offset 8, -8
 581 0254 13040102 		addi	s0,sp,32
 582              		.cfi_def_cfa 8, 0
 139:src/syscall_c.cpp ****   uint64 volatile code=0x24;
 583              		.loc 1 139 3 is_stmt 1
 584              		.loc 1 139 19 is_stmt 0
 585 0258 93074002 		li	a5,36
 586 025c 2334F4FE 		sd	a5,-24(s0)
 140:src/syscall_c.cpp ****   uint64 volatile handleC=(uint64)id;
 587              		.loc 1 140 3 is_stmt 1
 588              		.loc 1 140 19 is_stmt 0
 589 0260 2330A4FE 		sd	a0,-32(s0)
 141:src/syscall_c.cpp **** 
 142:src/syscall_c.cpp ****   __asm__ volatile("mv a0, %0" : : "r" (code));
 590              		.loc 1 142 3 is_stmt 1
 591              		.loc 1 142 41 is_stmt 0
 592 0264 833784FE 		ld	a5,-24(s0)
 593              		.loc 1 142 47
 594              	#APP
 595              	# 142 "src/syscall_c.cpp" 1
 143              	  __asm__ volatile("mv a1, %0" : : "r" (handleC));
 596              		mv a0, a5
 597              	# 0 "" 2
 598              		.loc 1 143 3 is_stmt 1
 599              		.loc 1 143 41 is_stmt 0
 600              	#NO_APP
 601 026c 833704FE 		ld	a5,-32(s0)
 602              		.loc 1 143 50
 603              	#APP
 604              	# 143 "src/syscall_c.cpp" 1
 144              	
 145:src/syscall_c.cpp ****   __asm__ volatile("ecall");
 605              		mv a1, a5
 606              	# 0 "" 2
 607              		.loc 1 145 3 is_stmt 1
GAS LISTING /tmp/ccyeCDOs.s 			page 14


 608              		.loc 1 145 28 is_stmt 0
 609              	# 145 "src/syscall_c.cpp" 1
 146              	
 147:src/syscall_c.cpp ****   int ret;
 610              		ecall
 611              	# 0 "" 2
 612              		.loc 1 147 3 is_stmt 1
 148:src/syscall_c.cpp ****   __asm__ volatile("mv %0, a0" : "=r" (ret));
 613              		.loc 1 148 3
 614              		.loc 1 148 45 is_stmt 0
 615              	# 148 "src/syscall_c.cpp" 1
 149              	
 616              		mv a0, a0
 617              	# 0 "" 2
 618              	.LVL29:
 619              	#NO_APP
 620 027c 1B050500 		sext.w	a0,a0
 621              	.LVL30:
 150:src/syscall_c.cpp ****   return ret;
 622              		.loc 1 150 3 is_stmt 1
 151:src/syscall_c.cpp **** 
 152:src/syscall_c.cpp **** }
 623              		.loc 1 152 1 is_stmt 0
 624 0280 03348101 		ld	s0,24(sp)
 625              		.cfi_restore 8
 626              		.cfi_def_cfa 2, 32
 627 0284 13010102 		addi	sp,sp,32
 628              		.cfi_def_cfa_offset 0
 629              	.LVL31:
 630 0288 67800000 		jr	ra
 631              	.LVL32:
 632              	.L29:
 138:src/syscall_c.cpp ****   uint64 volatile code=0x24;
 633              		.loc 1 138 19
 634 028c 1305F0FF 		li	a0,-1
 635              	.LVL33:
 636              		.loc 1 152 1
 637 0290 67800000 		ret
 638              		.cfi_endproc
 639              	.LFE32:
 641              		.align	2
 642              		.globl	_Z4getcv
 644              	_Z4getcv:
 645              	.LFB33:
 153:src/syscall_c.cpp **** 
 154:src/syscall_c.cpp **** 
 155:src/syscall_c.cpp **** char getc(){
 646              		.loc 1 155 12 is_stmt 1
 647              		.cfi_startproc
 648 0294 130101FF 		addi	sp,sp,-16
 649              		.cfi_def_cfa_offset 16
 650 0298 23348100 		sd	s0,8(sp)
 651              		.cfi_offset 8, -8
 652 029c 13040101 		addi	s0,sp,16
 653              		.cfi_def_cfa 8, 0
 156:src/syscall_c.cpp **** 
 157:src/syscall_c.cpp ****     uint64   code=0x41;
GAS LISTING /tmp/ccyeCDOs.s 			page 15


 654              		.loc 1 157 5
 655              	.LVL34:
 158:src/syscall_c.cpp ****     __asm__ volatile("mv a0, %[instrcode]" : : [instrcode] "r" (code));
 656              		.loc 1 158 5
 657              		.loc 1 158 71 is_stmt 0
 658 02a0 93071004 		li	a5,65
 659              	#APP
 660              	# 158 "src/syscall_c.cpp" 1
 159              	    char  ret;
 661              		mv a0, a5
 662              	# 0 "" 2
 663              		.loc 1 159 5 is_stmt 1
 160:src/syscall_c.cpp ****     __asm__ volatile("ecall");
 664              		.loc 1 160 5
 665              		.loc 1 160 30 is_stmt 0
 666              	# 160 "src/syscall_c.cpp" 1
 161              	    __asm__ volatile("mv %0, a0" : "=r" (ret));
 667              		ecall
 668              	# 0 "" 2
 669              		.loc 1 161 5 is_stmt 1
 670              		.loc 1 161 47 is_stmt 0
 671              	# 161 "src/syscall_c.cpp" 1
 162              	    return ret;
 672              		mv a0, a0
 673              	# 0 "" 2
 674              	.LVL35:
 675              		.loc 1 162 5 is_stmt 1
 163:src/syscall_c.cpp **** 
 164:src/syscall_c.cpp **** }
 676              		.loc 1 164 1 is_stmt 0
 677              	#NO_APP
 678 02b0 1375F50F 		andi	a0,a0,0xff
 679 02b4 03348100 		ld	s0,8(sp)
 680              		.cfi_restore 8
 681              		.cfi_def_cfa 2, 16
 682 02b8 13010101 		addi	sp,sp,16
 683              		.cfi_def_cfa_offset 0
 684 02bc 67800000 		jr	ra
 685              		.cfi_endproc
 686              	.LFE33:
 688              		.align	2
 689              		.globl	_Z4putcc
 691              	_Z4putcc:
 692              	.LFB34:
 165:src/syscall_c.cpp **** 
 166:src/syscall_c.cpp **** void putc(char c){
 693              		.loc 1 166 18 is_stmt 1
 694              		.cfi_startproc
 695              	.LVL36:
 696 02c0 130101FF 		addi	sp,sp,-16
 697              		.cfi_def_cfa_offset 16
 698 02c4 23348100 		sd	s0,8(sp)
 699              		.cfi_offset 8, -8
 700 02c8 13040101 		addi	s0,sp,16
 701              		.cfi_def_cfa 8, 0
 167:src/syscall_c.cpp ****     uint64  code=0x42;
 702              		.loc 1 167 5
GAS LISTING /tmp/ccyeCDOs.s 			page 16


 703              	.LVL37:
 168:src/syscall_c.cpp ****     __asm__ volatile("mv a1, %[val]" : : [val] "r" ((uint64)c));
 704              		.loc 1 168 5
 705              		.loc 1 168 64 is_stmt 0
 706              	#APP
 707              	# 168 "src/syscall_c.cpp" 1
 169              	    __asm__ volatile("mv a0, %[instrcode]" : : [instrcode] "r" (code));
 708              		mv a1, a0
 709              	# 0 "" 2
 710              		.loc 1 169 5 is_stmt 1
 711              		.loc 1 169 71 is_stmt 0
 712              	#NO_APP
 713 02d0 93072004 		li	a5,66
 714              	#APP
 715              	# 169 "src/syscall_c.cpp" 1
 170              	    __asm__ volatile("ecall");
 716              		mv a0, a5
 717              	# 0 "" 2
 718              		.loc 1 170 5 is_stmt 1
 719              		.loc 1 170 30 is_stmt 0
 720              	# 170 "src/syscall_c.cpp" 1
 171              	}
 721              		ecall
 722              	# 0 "" 2
 723              		.loc 1 171 1
 724              	#NO_APP
 725 02dc 03348100 		ld	s0,8(sp)
 726              		.cfi_restore 8
 727              		.cfi_def_cfa 2, 16
 728 02e0 13010101 		addi	sp,sp,16
 729              		.cfi_def_cfa_offset 0
 730 02e4 67800000 		jr	ra
 731              		.cfi_endproc
 732              	.LFE34:
 734              	.Letext0:
 735              		.file 2 "src/../h/../lib/hw.h"
 736              		.file 3 "src/../h/tcb.hpp"
 737              		.file 4 "src/../h/syscall_c.hpp"
GAS LISTING /tmp/ccyeCDOs.s 			page 17

