GAS LISTING /tmp/cc2gcxg5.s 			page 1


   1              		.file	"syscall_cpp.cpp"
   2              		.option pic
   3              		.option norelax
   4              		.text
   5              	.Ltext0:
   6              		.section	.text._ZN6Thread3runEv,"axG",@progbits,_ZN6Thread3runEv,comdat
   7              		.align	2
   8              		.weak	_ZN6Thread3runEv
  10              	_ZN6Thread3runEv:
  11              	.LFB20:
  12              		.file 1 "src/../h/syscall_cpp.hpp"
   1:src/../h/syscall_cpp.hpp **** //
   2:src/../h/syscall_cpp.hpp **** // Created by os on 3/5/25.
   3:src/../h/syscall_cpp.hpp **** //
   4:src/../h/syscall_cpp.hpp **** 
   5:src/../h/syscall_cpp.hpp **** #ifndef SYSCALL_CPP_HPP
   6:src/../h/syscall_cpp.hpp **** #define SYSCALL_CPP_HPP
   7:src/../h/syscall_cpp.hpp **** 
   8:src/../h/syscall_cpp.hpp **** #include "syscall_c.hpp"
   9:src/../h/syscall_cpp.hpp **** 
  10:src/../h/syscall_cpp.hpp **** 
  11:src/../h/syscall_cpp.hpp **** //void* operator new(size_t);
  12:src/../h/syscall_cpp.hpp **** //void operator delete(void*);
  13:src/../h/syscall_cpp.hpp **** 
  14:src/../h/syscall_cpp.hpp **** class Thread {
  15:src/../h/syscall_cpp.hpp **** public:
  16:src/../h/syscall_cpp.hpp ****  Thread (void (*body)(void*), void* arg);
  17:src/../h/syscall_cpp.hpp ****  virtual ~Thread ();
  18:src/../h/syscall_cpp.hpp ****  int start ();
  19:src/../h/syscall_cpp.hpp ****  static void dispatch ();
  20:src/../h/syscall_cpp.hpp ****  //static int sleep (time_t);
  21:src/../h/syscall_cpp.hpp **** protected:
  22:src/../h/syscall_cpp.hpp ****  Thread ();
  23:src/../h/syscall_cpp.hpp ****  virtual void run () {}
  13              		.loc 1 23 15
  14              		.cfi_startproc
  15              	.LVL0:
  16 0000 130101FF 		addi	sp,sp,-16
  17              		.cfi_def_cfa_offset 16
  18 0004 23348100 		sd	s0,8(sp)
  19              		.cfi_offset 8, -8
  20 0008 13040101 		addi	s0,sp,16
  21              		.cfi_def_cfa 8, 0
  22              		.loc 1 23 23 is_stmt 0
  23 000c 03348100 		ld	s0,8(sp)
  24              		.cfi_restore 8
  25              		.cfi_def_cfa 2, 16
  26 0010 13010101 		addi	sp,sp,16
  27              		.cfi_def_cfa_offset 0
  28 0014 67800000 		jr	ra
  29              		.cfi_endproc
  30              	.LFE20:
  32              		.text
  33              		.align	2
  34              		.globl	_ZN6Thread7wrapperEPv
  36              	_ZN6Thread7wrapperEPv:
  37              	.LFB33:
GAS LISTING /tmp/cc2gcxg5.s 			page 2


  38              		.file 2 "src/syscall_cpp.cpp"
   1:src/syscall_cpp.cpp **** //
   2:src/syscall_cpp.cpp **** // Created by os on 3/5/25.
   3:src/syscall_cpp.cpp **** //
   4:src/syscall_cpp.cpp **** 
   5:src/syscall_cpp.cpp **** #include "../h/syscall_cpp.hpp"
   6:src/syscall_cpp.cpp **** 
   7:src/syscall_cpp.cpp **** 
   8:src/syscall_cpp.cpp **** 
   9:src/syscall_cpp.cpp **** int Thread::start(){
  10:src/syscall_cpp.cpp ****      if(!body) {
  11:src/syscall_cpp.cpp ****          return thread_create(&myHandle, &wrapper, this);
  12:src/syscall_cpp.cpp **** 
  13:src/syscall_cpp.cpp ****     }
  14:src/syscall_cpp.cpp ****     else{
  15:src/syscall_cpp.cpp ****          return thread_create(&myHandle,body,this->arg);
  16:src/syscall_cpp.cpp ****     }
  17:src/syscall_cpp.cpp **** 
  18:src/syscall_cpp.cpp **** }
  19:src/syscall_cpp.cpp **** 
  20:src/syscall_cpp.cpp ****   Thread::Thread (void (*body)(void*), void* arg){
  21:src/syscall_cpp.cpp ****     this->body = body;
  22:src/syscall_cpp.cpp ****     this->arg = arg;
  23:src/syscall_cpp.cpp ****   }
  24:src/syscall_cpp.cpp **** 
  25:src/syscall_cpp.cpp **** Thread::~Thread() {
  26:src/syscall_cpp.cpp ****     delete myHandle;
  27:src/syscall_cpp.cpp **** }
  28:src/syscall_cpp.cpp **** 
  29:src/syscall_cpp.cpp ****  void Thread ::dispatch(){
  30:src/syscall_cpp.cpp ****   return thread_dispatch();
  31:src/syscall_cpp.cpp **** }
  32:src/syscall_cpp.cpp **** 
  33:src/syscall_cpp.cpp **** Thread::Thread() {
  34:src/syscall_cpp.cpp ****    body= nullptr;
  35:src/syscall_cpp.cpp **** }
  36:src/syscall_cpp.cpp **** 
  37:src/syscall_cpp.cpp **** void Thread::wrapper(void *arg) {
  39              		.loc 2 37 33 is_stmt 1
  40              		.cfi_startproc
  41              	.LVL1:
  42 0000 130101FF 		addi	sp,sp,-16
  43              		.cfi_def_cfa_offset 16
  44 0004 23341100 		sd	ra,8(sp)
  45 0008 23308100 		sd	s0,0(sp)
  46              		.cfi_offset 1, -8
  47              		.cfi_offset 8, -16
  48 000c 13040101 		addi	s0,sp,16
  49              		.cfi_def_cfa 8, 0
  38:src/syscall_cpp.cpp ****     Thread* t = (Thread*)arg;
  50              		.loc 2 38 5
  51              	.LVL2:
  39:src/syscall_cpp.cpp ****     t->run();
  52              		.loc 2 39 5
  53              		.loc 2 39 12 is_stmt 0
  54 0010 83370500 		ld	a5,0(a0)
  55 0014 83B70701 		ld	a5,16(a5)
GAS LISTING /tmp/cc2gcxg5.s 			page 3


  56              		.loc 2 39 11
  57 0018 E7800700 		jalr	a5
  58              	.LVL3:
  40:src/syscall_cpp.cpp **** }
  59              		.loc 2 40 1
  60 001c 83308100 		ld	ra,8(sp)
  61              		.cfi_restore 1
  62 0020 03340100 		ld	s0,0(sp)
  63              		.cfi_restore 8
  64              		.cfi_def_cfa 2, 16
  65 0024 13010101 		addi	sp,sp,16
  66              		.cfi_def_cfa_offset 0
  67 0028 67800000 		jr	ra
  68              		.cfi_endproc
  69              	.LFE33:
  71              		.align	2
  72              		.globl	_ZN6ThreadD2Ev
  74              	_ZN6ThreadD2Ev:
  75              	.LFB26:
  25:src/syscall_cpp.cpp ****     delete myHandle;
  76              		.loc 2 25 1 is_stmt 1
  77              		.cfi_startproc
  78              		.cfi_personality 0x9b,DW.ref.__gxx_personality_v0
  79              		.cfi_lsda 0x1b,.LLSDA26
  80              	.LVL4:
  81 002c 130101FE 		addi	sp,sp,-32
  82              		.cfi_def_cfa_offset 32
  83 0030 233C1100 		sd	ra,24(sp)
  84 0034 23388100 		sd	s0,16(sp)
  85 0038 23349100 		sd	s1,8(sp)
  86              		.cfi_offset 1, -8
  87              		.cfi_offset 8, -16
  88              		.cfi_offset 9, -24
  89 003c 13040102 		addi	s0,sp,32
  90              		.cfi_def_cfa 8, 0
  91              	.LBB5:
  25:src/syscall_cpp.cpp ****     delete myHandle;
  92              		.loc 2 25 17 is_stmt 0
  93 0040 97070000 		lla	a5,_ZTV6Thread+16
  93      93870700 
  94 0048 2330F500 		sd	a5,0(a0)
  26:src/syscall_cpp.cpp **** }
  95              		.loc 2 26 5 is_stmt 1
  26:src/syscall_cpp.cpp **** }
  96              		.loc 2 26 12 is_stmt 0
  97 004c 83348500 		ld	s1,8(a0)
  26:src/syscall_cpp.cpp **** }
  98              		.loc 2 26 20
  99 0050 63820402 		beqz	s1,.L5
  26:src/syscall_cpp.cpp **** }
 100              		.loc 2 26 12 discriminator 1
 101 0054 13850400 		mv	a0,s1
 102              	.LVL5:
 103 0058 97000000 		call	_ZN3TCBD1Ev@plt
 103      E7800000 
 104              	.LVL6:
 105              	.LBB6:
GAS LISTING /tmp/cc2gcxg5.s 			page 4


 106              	.LBB7:
 107              		.file 3 "src/../h/tcb.hpp"
   1:src/../h/tcb.hpp **** //
   2:src/../h/tcb.hpp **** // Created by os on 3/3/25.
   3:src/../h/tcb.hpp **** //
   4:src/../h/tcb.hpp **** //Thread Control Block
   5:src/../h/tcb.hpp **** #ifndef _TCB_H
   6:src/../h/tcb.hpp **** #define _TCB_H
   7:src/../h/tcb.hpp **** 
   8:src/../h/tcb.hpp **** #include "../lib/hw.h"
   9:src/../h/tcb.hpp **** #include "../h/scheduler.hpp"
  10:src/../h/tcb.hpp **** #include "../h/syscall_c.hpp"
  11:src/../h/tcb.hpp **** 
  12:src/../h/tcb.hpp **** 
  13:src/../h/tcb.hpp **** //this is thread control block,information about every created thread
  14:src/../h/tcb.hpp **** class TCB {
  15:src/../h/tcb.hpp ****   public:
  16:src/../h/tcb.hpp **** 
  17:src/../h/tcb.hpp ****     ~TCB();
  18:src/../h/tcb.hpp **** 
  19:src/../h/tcb.hpp ****     friend class SemaforKernel;
  20:src/../h/tcb.hpp **** 
  21:src/../h/tcb.hpp ****     using ThreadFunction=void (*)(void*);
  22:src/../h/tcb.hpp **** 
  23:src/../h/tcb.hpp ****     bool isFinished() const{ return finished; }
  24:src/../h/tcb.hpp **** 
  25:src/../h/tcb.hpp ****     void setFinished(bool finish){ finished=finish; }
  26:src/../h/tcb.hpp **** 
  27:src/../h/tcb.hpp ****    static TCB* createThread(ThreadFunction func, void* arg,uint64* stack,bool kernel=false);
  28:src/../h/tcb.hpp **** 
  29:src/../h/tcb.hpp ****    static TCB* running;
  30:src/../h/tcb.hpp **** 
  31:src/../h/tcb.hpp ****    static uint64 const STACK_SIZE = 1024;
  32:src/../h/tcb.hpp **** 
  33:src/../h/tcb.hpp ****     void* operator new(size_t size){ return MemoryAllocator::createAllocator()->alloc(size); }
  34:src/../h/tcb.hpp ****     void operator delete(void* p){ MemoryAllocator::createAllocator()->dealloc(p); }
 108              		.loc 3 34 36 is_stmt 1 discriminator 1
 109              		.loc 3 34 79 is_stmt 0 discriminator 1
 110 0060 97000000 		call	_ZN15MemoryAllocator15createAllocatorEv@plt
 110      E7800000 
 111              	.LVL7:
 112 0068 93850400 		mv	a1,s1
 113 006c 97000000 		call	_ZN15MemoryAllocator7deallocEPv@plt
 113      E7800000 
 114              	.LVL8:
 115              	.L5:
 116              	.LBE7:
 117              	.LBE6:
 118              	.LBE5:
  27:src/syscall_cpp.cpp **** 
 119              		.loc 2 27 1
 120 0074 83308101 		ld	ra,24(sp)
 121              		.cfi_restore 1
 122 0078 03340101 		ld	s0,16(sp)
 123              		.cfi_restore 8
 124              		.cfi_def_cfa 2, 32
 125 007c 83348100 		ld	s1,8(sp)
GAS LISTING /tmp/cc2gcxg5.s 			page 5


 126              		.cfi_restore 9
 127 0080 13010102 		addi	sp,sp,32
 128              		.cfi_def_cfa_offset 0
 129 0084 67800000 		jr	ra
 130              		.cfi_endproc
 131              	.LFE26:
 132              		.globl	__gxx_personality_v0
 133              		.section	.gcc_except_table,"a",@progbits
 134              	.LLSDA26:
 135 0000 FF       		.byte	0xff
 136 0001 FF       		.byte	0xff
 137 0002 03       		.byte	0x3
 138 0003 00       		.byte	0
 139              		.text
 141              		.globl	_ZN6ThreadD1Ev
 142              		.set	_ZN6ThreadD1Ev,_ZN6ThreadD2Ev
 143              		.align	2
 144              		.globl	_ZN6ThreadD0Ev
 146              	_ZN6ThreadD0Ev:
 147              	.LFB28:
  25:src/syscall_cpp.cpp ****     delete myHandle;
 148              		.loc 2 25 1 is_stmt 1
 149              		.cfi_startproc
 150              	.LVL9:
 151 0088 130101FE 		addi	sp,sp,-32
 152              		.cfi_def_cfa_offset 32
 153 008c 233C1100 		sd	ra,24(sp)
 154 0090 23388100 		sd	s0,16(sp)
 155 0094 23349100 		sd	s1,8(sp)
 156              		.cfi_offset 1, -8
 157              		.cfi_offset 8, -16
 158              		.cfi_offset 9, -24
 159 0098 13040102 		addi	s0,sp,32
 160              		.cfi_def_cfa 8, 0
 161 009c 93040500 		mv	s1,a0
  27:src/syscall_cpp.cpp **** 
 162              		.loc 2 27 1 is_stmt 0
 163 00a0 97000000 		call	_ZN6ThreadD1Ev
 163      E7800000 
 164              	.LVL10:
 165 00a8 13850400 		mv	a0,s1
 166 00ac 97000000 		call	_ZdlPv@plt
 166      E7800000 
 167              	.LVL11:
 168 00b4 83308101 		ld	ra,24(sp)
 169              		.cfi_restore 1
 170 00b8 03340101 		ld	s0,16(sp)
 171              		.cfi_restore 8
 172              		.cfi_def_cfa 2, 32
 173 00bc 83348100 		ld	s1,8(sp)
 174              		.cfi_restore 9
 175              	.LVL12:
 176 00c0 13010102 		addi	sp,sp,32
 177              		.cfi_def_cfa_offset 0
 178 00c4 67800000 		jr	ra
 179              		.cfi_endproc
 180              	.LFE28:
GAS LISTING /tmp/cc2gcxg5.s 			page 6


 182              		.align	2
 183              		.globl	_ZN9SemaphoreD2Ev
 185              	_ZN9SemaphoreD2Ev:
 186              	.LFB38:
  41:src/syscall_cpp.cpp **** 
  42:src/syscall_cpp.cpp **** Semaphore::Semaphore(unsigned init) {
  43:src/syscall_cpp.cpp ****     sem_open(&myHandle,init);
  44:src/syscall_cpp.cpp **** }
  45:src/syscall_cpp.cpp **** 
  46:src/syscall_cpp.cpp **** Semaphore::~Semaphore() {
 187              		.loc 2 46 1 is_stmt 1
 188              		.cfi_startproc
 189              		.cfi_personality 0x9b,DW.ref.__gxx_personality_v0
 190              		.cfi_lsda 0x1b,.LLSDA38
 191              	.LVL13:
 192 00c8 130101FF 		addi	sp,sp,-16
 193              		.cfi_def_cfa_offset 16
 194 00cc 23341100 		sd	ra,8(sp)
 195 00d0 23308100 		sd	s0,0(sp)
 196              		.cfi_offset 1, -8
 197              		.cfi_offset 8, -16
 198 00d4 13040101 		addi	s0,sp,16
 199              		.cfi_def_cfa 8, 0
 200              	.LBB8:
 201              		.loc 2 46 23 is_stmt 0
 202 00d8 97070000 		lla	a5,_ZTV9Semaphore+16
 202      93870700 
 203 00e0 2330F500 		sd	a5,0(a0)
  47:src/syscall_cpp.cpp ****     sem_close(myHandle);
 204              		.loc 2 47 5 is_stmt 1
 205              		.loc 2 47 14 is_stmt 0
 206 00e4 03358500 		ld	a0,8(a0)
 207              	.LVL14:
 208 00e8 97000000 		call	_Z9sem_closeP13SemaforKernel@plt
 208      E7800000 
 209              	.LVL15:
 210              	.LBE8:
  48:src/syscall_cpp.cpp **** }
 211              		.loc 2 48 1
 212 00f0 83308100 		ld	ra,8(sp)
 213              		.cfi_restore 1
 214 00f4 03340100 		ld	s0,0(sp)
 215              		.cfi_restore 8
 216              		.cfi_def_cfa 2, 16
 217 00f8 13010101 		addi	sp,sp,16
 218              		.cfi_def_cfa_offset 0
 219 00fc 67800000 		jr	ra
 220              		.cfi_endproc
 221              	.LFE38:
 222              		.section	.gcc_except_table
 223              	.LLSDA38:
 224 0004 FF       		.byte	0xff
 225 0005 FF       		.byte	0xff
 226 0006 03       		.byte	0x3
 227 0007 00       		.byte	0
 228              		.text
 230              		.globl	_ZN9SemaphoreD1Ev
GAS LISTING /tmp/cc2gcxg5.s 			page 7


 231              		.set	_ZN9SemaphoreD1Ev,_ZN9SemaphoreD2Ev
 232              		.align	2
 233              		.globl	_ZN9SemaphoreD0Ev
 235              	_ZN9SemaphoreD0Ev:
 236              	.LFB40:
  46:src/syscall_cpp.cpp ****     sem_close(myHandle);
 237              		.loc 2 46 1 is_stmt 1
 238              		.cfi_startproc
 239              	.LVL16:
 240 0100 130101FE 		addi	sp,sp,-32
 241              		.cfi_def_cfa_offset 32
 242 0104 233C1100 		sd	ra,24(sp)
 243 0108 23388100 		sd	s0,16(sp)
 244 010c 23349100 		sd	s1,8(sp)
 245              		.cfi_offset 1, -8
 246              		.cfi_offset 8, -16
 247              		.cfi_offset 9, -24
 248 0110 13040102 		addi	s0,sp,32
 249              		.cfi_def_cfa 8, 0
 250 0114 93040500 		mv	s1,a0
 251              		.loc 2 48 1 is_stmt 0
 252 0118 97000000 		call	_ZN9SemaphoreD1Ev
 252      E7800000 
 253              	.LVL17:
 254 0120 13850400 		mv	a0,s1
 255 0124 97000000 		call	_ZdlPv@plt
 255      E7800000 
 256              	.LVL18:
 257 012c 83308101 		ld	ra,24(sp)
 258              		.cfi_restore 1
 259 0130 03340101 		ld	s0,16(sp)
 260              		.cfi_restore 8
 261              		.cfi_def_cfa 2, 32
 262 0134 83348100 		ld	s1,8(sp)
 263              		.cfi_restore 9
 264              	.LVL19:
 265 0138 13010102 		addi	sp,sp,32
 266              		.cfi_def_cfa_offset 0
 267 013c 67800000 		jr	ra
 268              		.cfi_endproc
 269              	.LFE40:
 271              		.align	2
 272              		.globl	_ZN6Thread5startEv
 274              	_ZN6Thread5startEv:
 275              	.LFB21:
   9:src/syscall_cpp.cpp ****      if(!body) {
 276              		.loc 2 9 20 is_stmt 1
 277              		.cfi_startproc
 278              	.LVL20:
 279 0140 130101FF 		addi	sp,sp,-16
 280              		.cfi_def_cfa_offset 16
 281 0144 23341100 		sd	ra,8(sp)
 282 0148 23308100 		sd	s0,0(sp)
 283              		.cfi_offset 1, -8
 284              		.cfi_offset 8, -16
 285 014c 13040101 		addi	s0,sp,16
 286              		.cfi_def_cfa 8, 0
GAS LISTING /tmp/cc2gcxg5.s 			page 8


  10:src/syscall_cpp.cpp ****          return thread_create(&myHandle, &wrapper, this);
 287              		.loc 2 10 6
  10:src/syscall_cpp.cpp ****          return thread_create(&myHandle, &wrapper, this);
 288              		.loc 2 10 10 is_stmt 0
 289 0150 83350501 		ld	a1,16(a0)
  10:src/syscall_cpp.cpp ****          return thread_create(&myHandle, &wrapper, this);
 290              		.loc 2 10 6
 291 0154 63820502 		beqz	a1,.L18
  15:src/syscall_cpp.cpp ****     }
 292              		.loc 2 15 10 is_stmt 1
  15:src/syscall_cpp.cpp ****     }
 293              		.loc 2 15 30 is_stmt 0
 294 0158 03368501 		ld	a2,24(a0)
 295 015c 13058500 		addi	a0,a0,8
 296              	.LVL21:
 297 0160 97000000 		call	_Z13thread_createPP3TCBPFvPvES2_@plt
 297      E7800000 
 298              	.LVL22:
 299              	.L16:
  18:src/syscall_cpp.cpp **** 
 300              		.loc 2 18 1
 301 0168 83308100 		ld	ra,8(sp)
 302              		.cfi_remember_state
 303              		.cfi_restore 1
 304 016c 03340100 		ld	s0,0(sp)
 305              		.cfi_restore 8
 306              		.cfi_def_cfa 2, 16
 307 0170 13010101 		addi	sp,sp,16
 308              		.cfi_def_cfa_offset 0
 309 0174 67800000 		jr	ra
 310              	.LVL23:
 311              	.L18:
 312              		.cfi_restore_state
  11:src/syscall_cpp.cpp **** 
 313              		.loc 2 11 10 is_stmt 1
  11:src/syscall_cpp.cpp **** 
 314              		.loc 2 11 30 is_stmt 0
 315 0178 13060500 		mv	a2,a0
 316 017c 97050000 		lla	a1,_ZN6Thread7wrapperEPv
 316      93850500 
 317 0184 13058500 		addi	a0,a0,8
 318              	.LVL24:
 319 0188 97000000 		call	_Z13thread_createPP3TCBPFvPvES2_@plt
 319      E7800000 
 320              	.LVL25:
  11:src/syscall_cpp.cpp **** 
 321              		.loc 2 11 56
 322 0190 6FF09FFD 		j	.L16
 323              		.cfi_endproc
 324              	.LFE21:
 326              		.align	2
 327              		.globl	_ZN6ThreadC2EPFvPvES0_
 329              	_ZN6ThreadC2EPFvPvES0_:
 330              	.LFB23:
  20:src/syscall_cpp.cpp ****     this->body = body;
 331              		.loc 2 20 3 is_stmt 1
 332              		.cfi_startproc
GAS LISTING /tmp/cc2gcxg5.s 			page 9


 333              	.LVL26:
 334 0194 130101FF 		addi	sp,sp,-16
 335              		.cfi_def_cfa_offset 16
 336 0198 23348100 		sd	s0,8(sp)
 337              		.cfi_offset 8, -8
 338 019c 13040101 		addi	s0,sp,16
 339              		.cfi_def_cfa 8, 0
 340              	.LBB9:
  20:src/syscall_cpp.cpp ****     this->body = body;
 341              		.loc 2 20 49 is_stmt 0
 342 01a0 97070000 		lla	a5,_ZTV6Thread+16
 342      93870700 
 343 01a8 2330F500 		sd	a5,0(a0)
  21:src/syscall_cpp.cpp ****     this->arg = arg;
 344              		.loc 2 21 5 is_stmt 1
  21:src/syscall_cpp.cpp ****     this->arg = arg;
 345              		.loc 2 21 16 is_stmt 0
 346 01ac 2338B500 		sd	a1,16(a0)
  22:src/syscall_cpp.cpp ****   }
 347              		.loc 2 22 5 is_stmt 1
  22:src/syscall_cpp.cpp ****   }
 348              		.loc 2 22 15 is_stmt 0
 349 01b0 233CC500 		sd	a2,24(a0)
 350              	.LBE9:
  23:src/syscall_cpp.cpp **** 
 351              		.loc 2 23 3
 352 01b4 03348100 		ld	s0,8(sp)
 353              		.cfi_restore 8
 354              		.cfi_def_cfa 2, 16
 355 01b8 13010101 		addi	sp,sp,16
 356              		.cfi_def_cfa_offset 0
 357 01bc 67800000 		jr	ra
 358              		.cfi_endproc
 359              	.LFE23:
 361              		.globl	_ZN6ThreadC1EPFvPvES0_
 362              		.set	_ZN6ThreadC1EPFvPvES0_,_ZN6ThreadC2EPFvPvES0_
 363              		.align	2
 364              		.globl	_ZN6Thread8dispatchEv
 366              	_ZN6Thread8dispatchEv:
 367              	.LFB29:
  29:src/syscall_cpp.cpp ****   return thread_dispatch();
 368              		.loc 2 29 26 is_stmt 1
 369              		.cfi_startproc
 370 01c0 130101FF 		addi	sp,sp,-16
 371              		.cfi_def_cfa_offset 16
 372 01c4 23341100 		sd	ra,8(sp)
 373 01c8 23308100 		sd	s0,0(sp)
 374              		.cfi_offset 1, -8
 375              		.cfi_offset 8, -16
 376 01cc 13040101 		addi	s0,sp,16
 377              		.cfi_def_cfa 8, 0
  30:src/syscall_cpp.cpp **** }
 378              		.loc 2 30 3
  30:src/syscall_cpp.cpp **** }
 379              		.loc 2 30 25 is_stmt 0
 380 01d0 97000000 		call	_Z15thread_dispatchv@plt
 380      E7800000 
GAS LISTING /tmp/cc2gcxg5.s 			page 10


 381              	.LVL27:
  31:src/syscall_cpp.cpp **** 
 382              		.loc 2 31 1
 383 01d8 83308100 		ld	ra,8(sp)
 384              		.cfi_restore 1
 385 01dc 03340100 		ld	s0,0(sp)
 386              		.cfi_restore 8
 387              		.cfi_def_cfa 2, 16
 388 01e0 13010101 		addi	sp,sp,16
 389              		.cfi_def_cfa_offset 0
 390 01e4 67800000 		jr	ra
 391              		.cfi_endproc
 392              	.LFE29:
 394              		.align	2
 395              		.globl	_ZN6ThreadC2Ev
 397              	_ZN6ThreadC2Ev:
 398              	.LFB31:
  33:src/syscall_cpp.cpp ****    body= nullptr;
 399              		.loc 2 33 1 is_stmt 1
 400              		.cfi_startproc
 401              	.LVL28:
 402 01e8 130101FF 		addi	sp,sp,-16
 403              		.cfi_def_cfa_offset 16
 404 01ec 23348100 		sd	s0,8(sp)
 405              		.cfi_offset 8, -8
 406 01f0 13040101 		addi	s0,sp,16
 407              		.cfi_def_cfa 8, 0
 408              	.LBB10:
  33:src/syscall_cpp.cpp ****    body= nullptr;
 409              		.loc 2 33 16 is_stmt 0
 410 01f4 97070000 		lla	a5,_ZTV6Thread+16
 410      93870700 
 411 01fc 2330F500 		sd	a5,0(a0)
  34:src/syscall_cpp.cpp **** }
 412              		.loc 2 34 4 is_stmt 1
  34:src/syscall_cpp.cpp **** }
 413              		.loc 2 34 8 is_stmt 0
 414 0200 23380500 		sd	zero,16(a0)
 415              	.LBE10:
  35:src/syscall_cpp.cpp **** 
 416              		.loc 2 35 1
 417 0204 03348100 		ld	s0,8(sp)
 418              		.cfi_restore 8
 419              		.cfi_def_cfa 2, 16
 420 0208 13010101 		addi	sp,sp,16
 421              		.cfi_def_cfa_offset 0
 422 020c 67800000 		jr	ra
 423              		.cfi_endproc
 424              	.LFE31:
 426              		.globl	_ZN6ThreadC1Ev
 427              		.set	_ZN6ThreadC1Ev,_ZN6ThreadC2Ev
 428              		.align	2
 429              		.globl	_ZN9SemaphoreC2Ej
 431              	_ZN9SemaphoreC2Ej:
 432              	.LFB35:
  42:src/syscall_cpp.cpp ****     sem_open(&myHandle,init);
 433              		.loc 2 42 1 is_stmt 1
GAS LISTING /tmp/cc2gcxg5.s 			page 11


 434              		.cfi_startproc
 435              	.LVL29:
 436 0210 130101FF 		addi	sp,sp,-16
 437              		.cfi_def_cfa_offset 16
 438 0214 23341100 		sd	ra,8(sp)
 439 0218 23308100 		sd	s0,0(sp)
 440              		.cfi_offset 1, -8
 441              		.cfi_offset 8, -16
 442 021c 13040101 		addi	s0,sp,16
 443              		.cfi_def_cfa 8, 0
 444              	.LBB11:
  42:src/syscall_cpp.cpp ****     sem_open(&myHandle,init);
 445              		.loc 2 42 35 is_stmt 0
 446 0220 97070000 		lla	a5,_ZTV9Semaphore+16
 446      93870700 
 447 0228 2330F500 		sd	a5,0(a0)
  43:src/syscall_cpp.cpp **** }
 448              		.loc 2 43 5 is_stmt 1
  43:src/syscall_cpp.cpp **** }
 449              		.loc 2 43 13 is_stmt 0
 450 022c 13058500 		addi	a0,a0,8
 451              	.LVL30:
 452 0230 97000000 		call	_Z8sem_openPP13SemaforKernelj@plt
 452      E7800000 
 453              	.LVL31:
 454              	.LBE11:
  44:src/syscall_cpp.cpp **** 
 455              		.loc 2 44 1
 456 0238 83308100 		ld	ra,8(sp)
 457              		.cfi_restore 1
 458 023c 03340100 		ld	s0,0(sp)
 459              		.cfi_restore 8
 460              		.cfi_def_cfa 2, 16
 461 0240 13010101 		addi	sp,sp,16
 462              		.cfi_def_cfa_offset 0
 463 0244 67800000 		jr	ra
 464              		.cfi_endproc
 465              	.LFE35:
 467              		.globl	_ZN9SemaphoreC1Ej
 468              		.set	_ZN9SemaphoreC1Ej,_ZN9SemaphoreC2Ej
 469              		.align	2
 470              		.globl	_ZN9Semaphore4waitEv
 472              	_ZN9Semaphore4waitEv:
 473              	.LFB41:
  49:src/syscall_cpp.cpp **** 
  50:src/syscall_cpp.cpp **** int Semaphore::wait() {
 474              		.loc 2 50 23 is_stmt 1
 475              		.cfi_startproc
 476              	.LVL32:
 477 0248 130101FF 		addi	sp,sp,-16
 478              		.cfi_def_cfa_offset 16
 479 024c 23341100 		sd	ra,8(sp)
 480 0250 23308100 		sd	s0,0(sp)
 481              		.cfi_offset 1, -8
 482              		.cfi_offset 8, -16
 483 0254 13040101 		addi	s0,sp,16
 484              		.cfi_def_cfa 8, 0
GAS LISTING /tmp/cc2gcxg5.s 			page 12


  51:src/syscall_cpp.cpp ****    return sem_wait(myHandle);
 485              		.loc 2 51 4
 486              		.loc 2 51 19 is_stmt 0
 487 0258 03358500 		ld	a0,8(a0)
 488              	.LVL33:
 489 025c 97000000 		call	_Z8sem_waitP13SemaforKernel@plt
 489      E7800000 
 490              	.LVL34:
  52:src/syscall_cpp.cpp **** }
 491              		.loc 2 52 1
 492 0264 83308100 		ld	ra,8(sp)
 493              		.cfi_restore 1
 494 0268 03340100 		ld	s0,0(sp)
 495              		.cfi_restore 8
 496              		.cfi_def_cfa 2, 16
 497 026c 13010101 		addi	sp,sp,16
 498              		.cfi_def_cfa_offset 0
 499 0270 67800000 		jr	ra
 500              		.cfi_endproc
 501              	.LFE41:
 503              		.align	2
 504              		.globl	_ZN9Semaphore6signalEv
 506              	_ZN9Semaphore6signalEv:
 507              	.LFB42:
  53:src/syscall_cpp.cpp **** 
  54:src/syscall_cpp.cpp **** int Semaphore::signal() {
 508              		.loc 2 54 25 is_stmt 1
 509              		.cfi_startproc
 510              	.LVL35:
 511 0274 130101FF 		addi	sp,sp,-16
 512              		.cfi_def_cfa_offset 16
 513 0278 23341100 		sd	ra,8(sp)
 514 027c 23308100 		sd	s0,0(sp)
 515              		.cfi_offset 1, -8
 516              		.cfi_offset 8, -16
 517 0280 13040101 		addi	s0,sp,16
 518              		.cfi_def_cfa 8, 0
  55:src/syscall_cpp.cpp ****    return sem_signal(myHandle);
 519              		.loc 2 55 4
 520              		.loc 2 55 21 is_stmt 0
 521 0284 03358500 		ld	a0,8(a0)
 522              	.LVL36:
 523 0288 97000000 		call	_Z10sem_signalP13SemaforKernel@plt
 523      E7800000 
 524              	.LVL37:
  56:src/syscall_cpp.cpp **** }
 525              		.loc 2 56 1
 526 0290 83308100 		ld	ra,8(sp)
 527              		.cfi_restore 1
 528 0294 03340100 		ld	s0,0(sp)
 529              		.cfi_restore 8
 530              		.cfi_def_cfa 2, 16
 531 0298 13010101 		addi	sp,sp,16
 532              		.cfi_def_cfa_offset 0
 533 029c 67800000 		jr	ra
 534              		.cfi_endproc
 535              	.LFE42:
GAS LISTING /tmp/cc2gcxg5.s 			page 13


 537              		.align	2
 538              		.globl	_ZN7Console4getcEv
 540              	_ZN7Console4getcEv:
 541              	.LFB43:
  57:src/syscall_cpp.cpp **** 
  58:src/syscall_cpp.cpp **** char Console::getc (){
 542              		.loc 2 58 22 is_stmt 1
 543              		.cfi_startproc
 544 02a0 130101FF 		addi	sp,sp,-16
 545              		.cfi_def_cfa_offset 16
 546 02a4 23341100 		sd	ra,8(sp)
 547 02a8 23308100 		sd	s0,0(sp)
 548              		.cfi_offset 1, -8
 549              		.cfi_offset 8, -16
 550 02ac 13040101 		addi	s0,sp,16
 551              		.cfi_def_cfa 8, 0
  59:src/syscall_cpp.cpp ****     char k = ::getc();
 552              		.loc 2 59 5
 553              		.loc 2 59 20 is_stmt 0
 554 02b0 97000000 		call	_Z4getcv@plt
 554      E7800000 
 555              	.LVL38:
  60:src/syscall_cpp.cpp ****     return k;
 556              		.loc 2 60 5 is_stmt 1
  61:src/syscall_cpp.cpp **** }
 557              		.loc 2 61 1 is_stmt 0
 558 02b8 83308100 		ld	ra,8(sp)
 559              		.cfi_restore 1
 560 02bc 03340100 		ld	s0,0(sp)
 561              		.cfi_restore 8
 562              		.cfi_def_cfa 2, 16
 563 02c0 13010101 		addi	sp,sp,16
 564              		.cfi_def_cfa_offset 0
 565 02c4 67800000 		jr	ra
 566              		.cfi_endproc
 567              	.LFE43:
 569              		.align	2
 570              		.globl	_ZN7Console4putcEc
 572              	_ZN7Console4putcEc:
 573              	.LFB44:
  62:src/syscall_cpp.cpp **** void Console::putc (char c){
 574              		.loc 2 62 28 is_stmt 1
 575              		.cfi_startproc
 576              	.LVL39:
 577 02c8 130101FF 		addi	sp,sp,-16
 578              		.cfi_def_cfa_offset 16
 579 02cc 23341100 		sd	ra,8(sp)
 580 02d0 23308100 		sd	s0,0(sp)
 581              		.cfi_offset 1, -8
 582              		.cfi_offset 8, -16
 583 02d4 13040101 		addi	s0,sp,16
 584              		.cfi_def_cfa 8, 0
  63:src/syscall_cpp.cpp ****     ::putc(c);
 585              		.loc 2 63 5
 586              		.loc 2 63 11 is_stmt 0
 587 02d8 97000000 		call	_Z4putcc@plt
 587      E7800000 
GAS LISTING /tmp/cc2gcxg5.s 			page 14


 588              	.LVL40:
  64:src/syscall_cpp.cpp **** }
 589              		.loc 2 64 1
 590 02e0 83308100 		ld	ra,8(sp)
 591              		.cfi_restore 1
 592 02e4 03340100 		ld	s0,0(sp)
 593              		.cfi_restore 8
 594              		.cfi_def_cfa 2, 16
 595 02e8 13010101 		addi	sp,sp,16
 596              		.cfi_def_cfa_offset 0
 597 02ec 67800000 		jr	ra
 598              		.cfi_endproc
 599              	.LFE44:
 601              		.weak	_ZTV6Thread
 602              		.section	.data.rel.ro.local._ZTV6Thread,"awG",@progbits,_ZTV6Thread,comdat
 603              		.align	3
 606              	_ZTV6Thread:
 607 0000 00000000 		.dword	0
 607      00000000 
 608 0008 00000000 		.dword	0
 608      00000000 
 609 0010 00000000 		.dword	_ZN6ThreadD1Ev
 609      00000000 
 610 0018 00000000 		.dword	_ZN6ThreadD0Ev
 610      00000000 
 611 0020 00000000 		.dword	_ZN6Thread3runEv
 611      00000000 
 612              		.weak	_ZTV9Semaphore
 613              		.section	.data.rel.ro.local._ZTV9Semaphore,"awG",@progbits,_ZTV9Semaphore,comdat
 614              		.align	3
 617              	_ZTV9Semaphore:
 618 0000 00000000 		.dword	0
 618      00000000 
 619 0008 00000000 		.dword	0
 619      00000000 
 620 0010 00000000 		.dword	_ZN9SemaphoreD1Ev
 620      00000000 
 621 0018 00000000 		.dword	_ZN9SemaphoreD0Ev
 621      00000000 
 622              		.text
 623              	.Letext0:
 624              		.file 4 "src/../h/../lib/hw.h"
 625              		.file 5 "src/../h/../h/../h/../h/memallocator.hpp"
 626              		.file 6 "src/../h/syscall_c.hpp"
 3673              		.align	3
 3676              	DW.ref.__gxx_personality_v0:
 3677 0000 00000000 		.dword	__gxx_personality_v0
 3677      00000000 
 3678              		.ident	"GCC: (Ubuntu 9.4.0-1ubuntu1~20.04) 9.4.0"
 3679              		.section	.note.GNU-stack,"",@progbits
GAS LISTING /tmp/cc2gcxg5.s 			page 15


DEFINED SYMBOLS
                            *ABS*:0000000000000000 syscall_cpp.cpp
     /tmp/cc2gcxg5.s:10     .text._ZN6Thread3runEv:0000000000000000 _ZN6Thread3runEv
     /tmp/cc2gcxg5.s:14     .text._ZN6Thread3runEv:0000000000000000 .L0 
     /tmp/cc2gcxg5.s:16     .text._ZN6Thread3runEv:0000000000000000 .L0 
     /tmp/cc2gcxg5.s:17     .text._ZN6Thread3runEv:0000000000000004 .L0 
     /tmp/cc2gcxg5.s:19     .text._ZN6Thread3runEv:0000000000000008 .L0 
     /tmp/cc2gcxg5.s:21     .text._ZN6Thread3runEv:000000000000000c .L0 
     /tmp/cc2gcxg5.s:23     .text._ZN6Thread3runEv:000000000000000c .L0 
     /tmp/cc2gcxg5.s:24     .text._ZN6Thread3runEv:0000000000000010 .L0 
     /tmp/cc2gcxg5.s:25     .text._ZN6Thread3runEv:0000000000000010 .L0 
     /tmp/cc2gcxg5.s:27     .text._ZN6Thread3runEv:0000000000000014 .L0 
     /tmp/cc2gcxg5.s:29     .text._ZN6Thread3runEv:0000000000000018 .L0 
     /tmp/cc2gcxg5.s:36     .text:0000000000000000 _ZN6Thread7wrapperEPv
     /tmp/cc2gcxg5.s:40     .text:0000000000000000 .L0 
     /tmp/cc2gcxg5.s:42     .text:0000000000000000 .L0 
     /tmp/cc2gcxg5.s:43     .text:0000000000000004 .L0 
     /tmp/cc2gcxg5.s:46     .text:000000000000000c .L0 
     /tmp/cc2gcxg5.s:47     .text:000000000000000c .L0 
     /tmp/cc2gcxg5.s:49     .text:0000000000000010 .L0 
     /tmp/cc2gcxg5.s:52     .text:0000000000000010 .L0 
     /tmp/cc2gcxg5.s:53     .text:0000000000000010 .L0 
     /tmp/cc2gcxg5.s:54     .text:0000000000000010 .L0 
     /tmp/cc2gcxg5.s:57     .text:0000000000000018 .L0 
     /tmp/cc2gcxg5.s:60     .text:000000000000001c .L0 
     /tmp/cc2gcxg5.s:61     .text:0000000000000020 .L0 
     /tmp/cc2gcxg5.s:63     .text:0000000000000024 .L0 
     /tmp/cc2gcxg5.s:64     .text:0000000000000024 .L0 
     /tmp/cc2gcxg5.s:66     .text:0000000000000028 .L0 
     /tmp/cc2gcxg5.s:68     .text:000000000000002c .L0 
     /tmp/cc2gcxg5.s:74     .text:000000000000002c _ZN6ThreadD2Ev
     /tmp/cc2gcxg5.s:77     .text:000000000000002c .L0 
     /tmp/cc2gcxg5.s:3676   .data.rel.local.DW.ref.__gxx_personality_v0:0000000000000000 DW.ref.__gxx_personality_v0
     /tmp/cc2gcxg5.s:81     .text:000000000000002c .L0 
     /tmp/cc2gcxg5.s:82     .text:0000000000000030 .L0 
     /tmp/cc2gcxg5.s:86     .text:000000000000003c .L0 
     /tmp/cc2gcxg5.s:87     .text:000000000000003c .L0 
     /tmp/cc2gcxg5.s:88     .text:000000000000003c .L0 
     /tmp/cc2gcxg5.s:90     .text:0000000000000040 .L0 
     /tmp/cc2gcxg5.s:606    .data.rel.ro.local._ZTV6Thread:0000000000000000 _ZTV6Thread
     /tmp/cc2gcxg5.s:93     .text:0000000000000040 .L0 
     /tmp/cc2gcxg5.s:96     .text:000000000000004c .L0 
     /tmp/cc2gcxg5.s:97     .text:000000000000004c .L0 
     /tmp/cc2gcxg5.s:99     .text:0000000000000050 .L0 
     /tmp/cc2gcxg5.s:101    .text:0000000000000054 .L0 
     /tmp/cc2gcxg5.s:109    .text:0000000000000060 .L0 
     /tmp/cc2gcxg5.s:110    .text:0000000000000060 .L0 
     /tmp/cc2gcxg5.s:120    .text:0000000000000074 .L0 
     /tmp/cc2gcxg5.s:121    .text:0000000000000078 .L0 
     /tmp/cc2gcxg5.s:123    .text:000000000000007c .L0 
     /tmp/cc2gcxg5.s:124    .text:000000000000007c .L0 
     /tmp/cc2gcxg5.s:126    .text:0000000000000080 .L0 
     /tmp/cc2gcxg5.s:128    .text:0000000000000084 .L0 
     /tmp/cc2gcxg5.s:130    .text:0000000000000088 .L0 
     /tmp/cc2gcxg5.s:74     .text:000000000000002c _ZN6ThreadD1Ev
     /tmp/cc2gcxg5.s:146    .text:0000000000000088 _ZN6ThreadD0Ev
     /tmp/cc2gcxg5.s:149    .text:0000000000000088 .L0 
GAS LISTING /tmp/cc2gcxg5.s 			page 16


     /tmp/cc2gcxg5.s:151    .text:0000000000000088 .L0 
     /tmp/cc2gcxg5.s:152    .text:000000000000008c .L0 
     /tmp/cc2gcxg5.s:156    .text:0000000000000098 .L0 
     /tmp/cc2gcxg5.s:157    .text:0000000000000098 .L0 
     /tmp/cc2gcxg5.s:158    .text:0000000000000098 .L0 
     /tmp/cc2gcxg5.s:160    .text:000000000000009c .L0 
     /tmp/cc2gcxg5.s:163    .text:00000000000000a0 .L0 
     /tmp/cc2gcxg5.s:169    .text:00000000000000b8 .L0 
     /tmp/cc2gcxg5.s:171    .text:00000000000000bc .L0 
     /tmp/cc2gcxg5.s:172    .text:00000000000000bc .L0 
     /tmp/cc2gcxg5.s:174    .text:00000000000000c0 .L0 
     /tmp/cc2gcxg5.s:177    .text:00000000000000c4 .L0 
     /tmp/cc2gcxg5.s:179    .text:00000000000000c8 .L0 
     /tmp/cc2gcxg5.s:185    .text:00000000000000c8 _ZN9SemaphoreD2Ev
     /tmp/cc2gcxg5.s:188    .text:00000000000000c8 .L0 
     /tmp/cc2gcxg5.s:192    .text:00000000000000c8 .L0 
     /tmp/cc2gcxg5.s:193    .text:00000000000000cc .L0 
     /tmp/cc2gcxg5.s:196    .text:00000000000000d4 .L0 
     /tmp/cc2gcxg5.s:197    .text:00000000000000d4 .L0 
     /tmp/cc2gcxg5.s:199    .text:00000000000000d8 .L0 
     /tmp/cc2gcxg5.s:617    .data.rel.ro.local._ZTV9Semaphore:0000000000000000 _ZTV9Semaphore
     /tmp/cc2gcxg5.s:202    .text:00000000000000d8 .L0 
     /tmp/cc2gcxg5.s:205    .text:00000000000000e4 .L0 
     /tmp/cc2gcxg5.s:206    .text:00000000000000e4 .L0 
     /tmp/cc2gcxg5.s:212    .text:00000000000000f0 .L0 
     /tmp/cc2gcxg5.s:213    .text:00000000000000f4 .L0 
     /tmp/cc2gcxg5.s:215    .text:00000000000000f8 .L0 
     /tmp/cc2gcxg5.s:216    .text:00000000000000f8 .L0 
     /tmp/cc2gcxg5.s:218    .text:00000000000000fc .L0 
     /tmp/cc2gcxg5.s:220    .text:0000000000000100 .L0 
     /tmp/cc2gcxg5.s:185    .text:00000000000000c8 _ZN9SemaphoreD1Ev
     /tmp/cc2gcxg5.s:235    .text:0000000000000100 _ZN9SemaphoreD0Ev
     /tmp/cc2gcxg5.s:238    .text:0000000000000100 .L0 
     /tmp/cc2gcxg5.s:240    .text:0000000000000100 .L0 
     /tmp/cc2gcxg5.s:241    .text:0000000000000104 .L0 
     /tmp/cc2gcxg5.s:245    .text:0000000000000110 .L0 
     /tmp/cc2gcxg5.s:246    .text:0000000000000110 .L0 
     /tmp/cc2gcxg5.s:247    .text:0000000000000110 .L0 
     /tmp/cc2gcxg5.s:249    .text:0000000000000114 .L0 
     /tmp/cc2gcxg5.s:252    .text:0000000000000118 .L0 
     /tmp/cc2gcxg5.s:258    .text:0000000000000130 .L0 
     /tmp/cc2gcxg5.s:260    .text:0000000000000134 .L0 
     /tmp/cc2gcxg5.s:261    .text:0000000000000134 .L0 
     /tmp/cc2gcxg5.s:263    .text:0000000000000138 .L0 
     /tmp/cc2gcxg5.s:266    .text:000000000000013c .L0 
     /tmp/cc2gcxg5.s:268    .text:0000000000000140 .L0 
     /tmp/cc2gcxg5.s:274    .text:0000000000000140 _ZN6Thread5startEv
     /tmp/cc2gcxg5.s:277    .text:0000000000000140 .L0 
     /tmp/cc2gcxg5.s:279    .text:0000000000000140 .L0 
     /tmp/cc2gcxg5.s:280    .text:0000000000000144 .L0 
     /tmp/cc2gcxg5.s:283    .text:000000000000014c .L0 
     /tmp/cc2gcxg5.s:284    .text:000000000000014c .L0 
     /tmp/cc2gcxg5.s:286    .text:0000000000000150 .L0 
     /tmp/cc2gcxg5.s:288    .text:0000000000000150 .L0 
     /tmp/cc2gcxg5.s:289    .text:0000000000000150 .L0 
     /tmp/cc2gcxg5.s:291    .text:0000000000000154 .L0 
     /tmp/cc2gcxg5.s:293    .text:0000000000000158 .L0 
GAS LISTING /tmp/cc2gcxg5.s 			page 17


     /tmp/cc2gcxg5.s:294    .text:0000000000000158 .L0 
     /tmp/cc2gcxg5.s:301    .text:0000000000000168 .L0 
     /tmp/cc2gcxg5.s:302    .text:000000000000016c .L0 
     /tmp/cc2gcxg5.s:303    .text:000000000000016c .L0 
     /tmp/cc2gcxg5.s:305    .text:0000000000000170 .L0 
     /tmp/cc2gcxg5.s:306    .text:0000000000000170 .L0 
     /tmp/cc2gcxg5.s:308    .text:0000000000000174 .L0 
     /tmp/cc2gcxg5.s:312    .text:0000000000000178 .L0 
     /tmp/cc2gcxg5.s:314    .text:0000000000000178 .L0 
     /tmp/cc2gcxg5.s:315    .text:0000000000000178 .L0 
     /tmp/cc2gcxg5.s:322    .text:0000000000000190 .L0 
     /tmp/cc2gcxg5.s:323    .text:0000000000000194 .L0 
     /tmp/cc2gcxg5.s:329    .text:0000000000000194 _ZN6ThreadC2EPFvPvES0_
     /tmp/cc2gcxg5.s:332    .text:0000000000000194 .L0 
     /tmp/cc2gcxg5.s:334    .text:0000000000000194 .L0 
     /tmp/cc2gcxg5.s:335    .text:0000000000000198 .L0 
     /tmp/cc2gcxg5.s:337    .text:000000000000019c .L0 
     /tmp/cc2gcxg5.s:339    .text:00000000000001a0 .L0 
     /tmp/cc2gcxg5.s:342    .text:00000000000001a0 .L0 
     /tmp/cc2gcxg5.s:345    .text:00000000000001ac .L0 
     /tmp/cc2gcxg5.s:346    .text:00000000000001ac .L0 
     /tmp/cc2gcxg5.s:348    .text:00000000000001b0 .L0 
     /tmp/cc2gcxg5.s:349    .text:00000000000001b0 .L0 
     /tmp/cc2gcxg5.s:352    .text:00000000000001b4 .L0 
     /tmp/cc2gcxg5.s:353    .text:00000000000001b8 .L0 
     /tmp/cc2gcxg5.s:354    .text:00000000000001b8 .L0 
     /tmp/cc2gcxg5.s:356    .text:00000000000001bc .L0 
     /tmp/cc2gcxg5.s:358    .text:00000000000001c0 .L0 
     /tmp/cc2gcxg5.s:329    .text:0000000000000194 _ZN6ThreadC1EPFvPvES0_
     /tmp/cc2gcxg5.s:366    .text:00000000000001c0 _ZN6Thread8dispatchEv
     /tmp/cc2gcxg5.s:369    .text:00000000000001c0 .L0 
     /tmp/cc2gcxg5.s:370    .text:00000000000001c0 .L0 
     /tmp/cc2gcxg5.s:371    .text:00000000000001c4 .L0 
     /tmp/cc2gcxg5.s:374    .text:00000000000001cc .L0 
     /tmp/cc2gcxg5.s:375    .text:00000000000001cc .L0 
     /tmp/cc2gcxg5.s:377    .text:00000000000001d0 .L0 
     /tmp/cc2gcxg5.s:379    .text:00000000000001d0 .L0 
     /tmp/cc2gcxg5.s:380    .text:00000000000001d0 .L0 
     /tmp/cc2gcxg5.s:383    .text:00000000000001d8 .L0 
     /tmp/cc2gcxg5.s:384    .text:00000000000001dc .L0 
     /tmp/cc2gcxg5.s:386    .text:00000000000001e0 .L0 
     /tmp/cc2gcxg5.s:387    .text:00000000000001e0 .L0 
     /tmp/cc2gcxg5.s:389    .text:00000000000001e4 .L0 
     /tmp/cc2gcxg5.s:391    .text:00000000000001e8 .L0 
     /tmp/cc2gcxg5.s:397    .text:00000000000001e8 _ZN6ThreadC2Ev
     /tmp/cc2gcxg5.s:400    .text:00000000000001e8 .L0 
     /tmp/cc2gcxg5.s:402    .text:00000000000001e8 .L0 
     /tmp/cc2gcxg5.s:403    .text:00000000000001ec .L0 
     /tmp/cc2gcxg5.s:405    .text:00000000000001f0 .L0 
     /tmp/cc2gcxg5.s:407    .text:00000000000001f4 .L0 
     /tmp/cc2gcxg5.s:410    .text:00000000000001f4 .L0 
     /tmp/cc2gcxg5.s:413    .text:0000000000000200 .L0 
     /tmp/cc2gcxg5.s:414    .text:0000000000000200 .L0 
     /tmp/cc2gcxg5.s:417    .text:0000000000000204 .L0 
     /tmp/cc2gcxg5.s:418    .text:0000000000000208 .L0 
     /tmp/cc2gcxg5.s:419    .text:0000000000000208 .L0 
     /tmp/cc2gcxg5.s:421    .text:000000000000020c .L0 
GAS LISTING /tmp/cc2gcxg5.s 			page 18


     /tmp/cc2gcxg5.s:423    .text:0000000000000210 .L0 
     /tmp/cc2gcxg5.s:397    .text:00000000000001e8 _ZN6ThreadC1Ev
     /tmp/cc2gcxg5.s:431    .text:0000000000000210 _ZN9SemaphoreC2Ej
     /tmp/cc2gcxg5.s:434    .text:0000000000000210 .L0 
     /tmp/cc2gcxg5.s:436    .text:0000000000000210 .L0 
     /tmp/cc2gcxg5.s:437    .text:0000000000000214 .L0 
     /tmp/cc2gcxg5.s:440    .text:000000000000021c .L0 
     /tmp/cc2gcxg5.s:441    .text:000000000000021c .L0 
     /tmp/cc2gcxg5.s:443    .text:0000000000000220 .L0 
     /tmp/cc2gcxg5.s:446    .text:0000000000000220 .L0 
     /tmp/cc2gcxg5.s:449    .text:000000000000022c .L0 
     /tmp/cc2gcxg5.s:450    .text:000000000000022c .L0 
     /tmp/cc2gcxg5.s:456    .text:0000000000000238 .L0 
     /tmp/cc2gcxg5.s:457    .text:000000000000023c .L0 
     /tmp/cc2gcxg5.s:459    .text:0000000000000240 .L0 
     /tmp/cc2gcxg5.s:460    .text:0000000000000240 .L0 
     /tmp/cc2gcxg5.s:462    .text:0000000000000244 .L0 
     /tmp/cc2gcxg5.s:464    .text:0000000000000248 .L0 
     /tmp/cc2gcxg5.s:431    .text:0000000000000210 _ZN9SemaphoreC1Ej
     /tmp/cc2gcxg5.s:472    .text:0000000000000248 _ZN9Semaphore4waitEv
     /tmp/cc2gcxg5.s:475    .text:0000000000000248 .L0 
     /tmp/cc2gcxg5.s:477    .text:0000000000000248 .L0 
     /tmp/cc2gcxg5.s:478    .text:000000000000024c .L0 
     /tmp/cc2gcxg5.s:481    .text:0000000000000254 .L0 
     /tmp/cc2gcxg5.s:482    .text:0000000000000254 .L0 
     /tmp/cc2gcxg5.s:484    .text:0000000000000258 .L0 
     /tmp/cc2gcxg5.s:486    .text:0000000000000258 .L0 
     /tmp/cc2gcxg5.s:487    .text:0000000000000258 .L0 
     /tmp/cc2gcxg5.s:492    .text:0000000000000264 .L0 
     /tmp/cc2gcxg5.s:493    .text:0000000000000268 .L0 
     /tmp/cc2gcxg5.s:495    .text:000000000000026c .L0 
     /tmp/cc2gcxg5.s:496    .text:000000000000026c .L0 
     /tmp/cc2gcxg5.s:498    .text:0000000000000270 .L0 
     /tmp/cc2gcxg5.s:500    .text:0000000000000274 .L0 
     /tmp/cc2gcxg5.s:506    .text:0000000000000274 _ZN9Semaphore6signalEv
     /tmp/cc2gcxg5.s:509    .text:0000000000000274 .L0 
     /tmp/cc2gcxg5.s:511    .text:0000000000000274 .L0 
     /tmp/cc2gcxg5.s:512    .text:0000000000000278 .L0 
     /tmp/cc2gcxg5.s:515    .text:0000000000000280 .L0 
     /tmp/cc2gcxg5.s:516    .text:0000000000000280 .L0 
     /tmp/cc2gcxg5.s:518    .text:0000000000000284 .L0 
     /tmp/cc2gcxg5.s:520    .text:0000000000000284 .L0 
     /tmp/cc2gcxg5.s:521    .text:0000000000000284 .L0 
     /tmp/cc2gcxg5.s:526    .text:0000000000000290 .L0 
     /tmp/cc2gcxg5.s:527    .text:0000000000000294 .L0 
     /tmp/cc2gcxg5.s:529    .text:0000000000000298 .L0 
     /tmp/cc2gcxg5.s:530    .text:0000000000000298 .L0 
     /tmp/cc2gcxg5.s:532    .text:000000000000029c .L0 
     /tmp/cc2gcxg5.s:534    .text:00000000000002a0 .L0 
     /tmp/cc2gcxg5.s:540    .text:00000000000002a0 _ZN7Console4getcEv
     /tmp/cc2gcxg5.s:543    .text:00000000000002a0 .L0 
     /tmp/cc2gcxg5.s:544    .text:00000000000002a0 .L0 
     /tmp/cc2gcxg5.s:545    .text:00000000000002a4 .L0 
     /tmp/cc2gcxg5.s:548    .text:00000000000002ac .L0 
     /tmp/cc2gcxg5.s:549    .text:00000000000002ac .L0 
     /tmp/cc2gcxg5.s:551    .text:00000000000002b0 .L0 
     /tmp/cc2gcxg5.s:553    .text:00000000000002b0 .L0 
GAS LISTING /tmp/cc2gcxg5.s 			page 19


     /tmp/cc2gcxg5.s:554    .text:00000000000002b0 .L0 
     /tmp/cc2gcxg5.s:557    .text:00000000000002b8 .L0 
     /tmp/cc2gcxg5.s:558    .text:00000000000002b8 .L0 
     /tmp/cc2gcxg5.s:559    .text:00000000000002bc .L0 
     /tmp/cc2gcxg5.s:561    .text:00000000000002c0 .L0 
     /tmp/cc2gcxg5.s:562    .text:00000000000002c0 .L0 
     /tmp/cc2gcxg5.s:564    .text:00000000000002c4 .L0 
     /tmp/cc2gcxg5.s:566    .text:00000000000002c8 .L0 
     /tmp/cc2gcxg5.s:572    .text:00000000000002c8 _ZN7Console4putcEc
     /tmp/cc2gcxg5.s:575    .text:00000000000002c8 .L0 
     /tmp/cc2gcxg5.s:577    .text:00000000000002c8 .L0 
     /tmp/cc2gcxg5.s:578    .text:00000000000002cc .L0 
     /tmp/cc2gcxg5.s:581    .text:00000000000002d4 .L0 
     /tmp/cc2gcxg5.s:582    .text:00000000000002d4 .L0 
     /tmp/cc2gcxg5.s:584    .text:00000000000002d8 .L0 
     /tmp/cc2gcxg5.s:586    .text:00000000000002d8 .L0 
     /tmp/cc2gcxg5.s:587    .text:00000000000002d8 .L0 
     /tmp/cc2gcxg5.s:590    .text:00000000000002e0 .L0 
     /tmp/cc2gcxg5.s:591    .text:00000000000002e4 .L0 
     /tmp/cc2gcxg5.s:593    .text:00000000000002e8 .L0 
     /tmp/cc2gcxg5.s:594    .text:00000000000002e8 .L0 
     /tmp/cc2gcxg5.s:596    .text:00000000000002ec .L0 
     /tmp/cc2gcxg5.s:598    .text:00000000000002f0 .L0 
     /tmp/cc2gcxg5.s:32     .text._ZN6Thread3runEv:0000000000000018 .L0 
     /tmp/cc2gcxg5.s:627    .text:00000000000002f0 .L0 
     /tmp/cc2gcxg5.s:93     .text:0000000000000040 .L0 
     /tmp/cc2gcxg5.s:202    .text:00000000000000d8 .L0 
     /tmp/cc2gcxg5.s:316    .text:000000000000017c .L0 
     /tmp/cc2gcxg5.s:342    .text:00000000000001a0 .L0 
     /tmp/cc2gcxg5.s:410    .text:00000000000001f4 .L0 
     /tmp/cc2gcxg5.s:446    .text:0000000000000220 .L0 
     /tmp/cc2gcxg5.s:115    .text:0000000000000074 .L5
     /tmp/cc2gcxg5.s:311    .text:0000000000000178 .L18
     /tmp/cc2gcxg5.s:299    .text:0000000000000168 .L16
     /tmp/cc2gcxg5.s:2009   .debug_abbrev:0000000000000000 .Ldebug_abbrev0
     /tmp/cc2gcxg5.s:3632   .debug_str:00000000000006bd .LASF122
     /tmp/cc2gcxg5.s:3610   .debug_str:0000000000000622 .LASF123
     /tmp/cc2gcxg5.s:3450   .debug_str:0000000000000145 .LASF124
     /tmp/cc2gcxg5.s:3392   .debug_ranges:0000000000000000 .Ldebug_ranges0
     /tmp/cc2gcxg5.s:3400   .debug_line:0000000000000000 .Ldebug_line0
     /tmp/cc2gcxg5.s:3556   .debug_str:0000000000000487 .LASF0
     /tmp/cc2gcxg5.s:3574   .debug_str:000000000000050f .LASF1
     /tmp/cc2gcxg5.s:3540   .debug_str:000000000000040d .LASF2
     /tmp/cc2gcxg5.s:3506   .debug_str:000000000000030a .LASF4
     /tmp/cc2gcxg5.s:3616   .debug_str:0000000000000655 .LASF3
     /tmp/cc2gcxg5.s:3426   .debug_str:00000000000000a9 .LASF5
     /tmp/cc2gcxg5.s:3580   .debug_str:0000000000000556 .LASF6
     /tmp/cc2gcxg5.s:3554   .debug_str:0000000000000474 .LASF7
     /tmp/cc2gcxg5.s:3646   .debug_str:00000000000007d5 .LASF8
     /tmp/cc2gcxg5.s:3494   .debug_str:000000000000029a .LASF9
     /tmp/cc2gcxg5.s:3592   .debug_str:0000000000000591 .LASF10
     /tmp/cc2gcxg5.s:3634   .debug_str:0000000000000781 .LASF11
     /tmp/cc2gcxg5.s:3428   .debug_str:00000000000000b0 .LASF12
     /tmp/cc2gcxg5.s:3408   .debug_str:0000000000000048 .LASF13
     /tmp/cc2gcxg5.s:3440   .debug_str:0000000000000115 .LASF14
     /tmp/cc2gcxg5.s:3612   .debug_str:0000000000000636 .LASF15
     /tmp/cc2gcxg5.s:3452   .debug_str:0000000000000168 .LASF16
GAS LISTING /tmp/cc2gcxg5.s 			page 20


     /tmp/cc2gcxg5.s:3534   .debug_str:00000000000003dc .LASF28
     /tmp/cc2gcxg5.s:3560   .debug_str:000000000000049d .LASF33
     /tmp/cc2gcxg5.s:3628   .debug_str:00000000000006a9 .LASF17
     /tmp/cc2gcxg5.s:3664   .debug_str:0000000000000894 .LASF18
     /tmp/cc2gcxg5.s:3642   .debug_str:00000000000007b6 .LASF65
     /tmp/cc2gcxg5.s:3652   .debug_str:0000000000000807 .LASF67
     /tmp/cc2gcxg5.s:3564   .debug_str:00000000000004c4 .LASF19
     /tmp/cc2gcxg5.s:3666   .debug_str:0000000000000899 .LASF21
     /tmp/cc2gcxg5.s:3410   .debug_str:0000000000000058 .LASF20
     /tmp/cc2gcxg5.s:3662   .debug_str:0000000000000874 .LASF22
     /tmp/cc2gcxg5.s:3418   .debug_str:0000000000000079 .LASF26
     /tmp/cc2gcxg5.s:3420   .debug_str:0000000000000083 .LASF23
     /tmp/cc2gcxg5.s:3464   .debug_str:00000000000001c5 .LASF30
     /tmp/cc2gcxg5.s:3530   .debug_str:00000000000003b6 .LASF36
     /tmp/cc2gcxg5.s:3548   .debug_str:000000000000043e .LASF24
     /tmp/cc2gcxg5.s:3520   .debug_str:0000000000000361 .LASF25
     /tmp/cc2gcxg5.s:3414   .debug_str:0000000000000068 .LASF27
     /tmp/cc2gcxg5.s:3620   .debug_str:0000000000000670 .LASF29
     /tmp/cc2gcxg5.s:3406   .debug_str:0000000000000013 .LASF31
     /tmp/cc2gcxg5.s:3480   .debug_str:000000000000022a .LASF32
     /tmp/cc2gcxg5.s:3412   .debug_str:0000000000000060 .LASF34
     /tmp/cc2gcxg5.s:3466   .debug_str:00000000000001de .LASF35
     /tmp/cc2gcxg5.s:3602   .debug_str:00000000000005e7 .LASF37
     /tmp/cc2gcxg5.s:3582   .debug_str:0000000000000569 .LASF38
     /tmp/cc2gcxg5.s:3492   .debug_str:0000000000000283 .LASF39
     /tmp/cc2gcxg5.s:3542   .debug_str:000000000000041b .LASF40
     /tmp/cc2gcxg5.s:3500   .debug_str:00000000000002b9 .LASF41
     /tmp/cc2gcxg5.s:3518   .debug_str:0000000000000354 .LASF42
     /tmp/cc2gcxg5.s:3550   .debug_str:0000000000000448 .LASF43
     /tmp/cc2gcxg5.s:3474   .debug_str:00000000000001ff .LASF125
     /tmp/cc2gcxg5.s:3472   .debug_str:00000000000001f7 .LASF126
     /tmp/cc2gcxg5.s:3522   .debug_str:000000000000037d .LASF127
     /tmp/cc2gcxg5.s:3654   .debug_str:000000000000082f .LASF44
     /tmp/cc2gcxg5.s:3422   .debug_str:000000000000008d .LASF45
     /tmp/cc2gcxg5.s:3622   .debug_str:000000000000067c .LASF46
     /tmp/cc2gcxg5.s:3604   .debug_str:00000000000005f3 .LASF47
     /tmp/cc2gcxg5.s:3488   .debug_str:0000000000000260 .LASF48
     /tmp/cc2gcxg5.s:3496   .debug_str:00000000000002a8 .LASF49
     /tmp/cc2gcxg5.s:3624   .debug_str:000000000000068c .LASF50
     /tmp/cc2gcxg5.s:3436   .debug_str:00000000000000f6 .LASF51
     /tmp/cc2gcxg5.s:3570   .debug_str:00000000000004f2 .LASF128
     /tmp/cc2gcxg5.s:3558   .debug_str:0000000000000494 .LASF52
     /tmp/cc2gcxg5.s:3478   .debug_str:0000000000000217 .LASF54
     /tmp/cc2gcxg5.s:3446   .debug_str:000000000000012f .LASF69
     /tmp/cc2gcxg5.s:3502   .debug_str:00000000000002d0 .LASF71
     /tmp/cc2gcxg5.s:3468   .debug_str:00000000000001e3 .LASF53
     /tmp/cc2gcxg5.s:3566   .debug_str:00000000000004ca .LASF55
     /tmp/cc2gcxg5.s:3588   .debug_str:0000000000000580 .LASF56
     /tmp/cc2gcxg5.s:3442   .debug_str:0000000000000121 .LASF57
     /tmp/cc2gcxg5.s:3516   .debug_str:000000000000034c .LASF58
     /tmp/cc2gcxg5.s:3510   .debug_str:0000000000000330 .LASF59
     /tmp/cc2gcxg5.s:3444   .debug_str:0000000000000127 .LASF60
     /tmp/cc2gcxg5.s:3638   .debug_str:00000000000007a2 .LASF61
     /tmp/cc2gcxg5.s:3402   .debug_str:0000000000000000 .LASF62
     /tmp/cc2gcxg5.s:3470   .debug_str:00000000000001f1 .LASF63
     /tmp/cc2gcxg5.s:3656   .debug_str:000000000000083c .LASF129
     /tmp/cc2gcxg5.s:3590   .debug_str:0000000000000589 .LASF64
GAS LISTING /tmp/cc2gcxg5.s 			page 21


     /tmp/cc2gcxg5.s:3538   .debug_str:0000000000000408 .LASF66
     /tmp/cc2gcxg5.s:3434   .debug_str:00000000000000e3 .LASF68
     /tmp/cc2gcxg5.s:3544   .debug_str:0000000000000427 .LASF70
     /tmp/cc2gcxg5.s:3576   .debug_str:0000000000000522 .LASF72
     /tmp/cc2gcxg5.s:3584   .debug_str:0000000000000574 .LASF73
     /tmp/cc2gcxg5.s:3404   .debug_str:0000000000000009 .LASF74
     /tmp/cc2gcxg5.s:3658   .debug_str:000000000000084a .LASF82
     /tmp/cc2gcxg5.s:3424   .debug_str:0000000000000099 .LASF84
     /tmp/cc2gcxg5.s:3636   .debug_str:0000000000000790 .LASF75
     /tmp/cc2gcxg5.s:3608   .debug_str:0000000000000617 .LASF87
     /tmp/cc2gcxg5.s:3438   .debug_str:0000000000000103 .LASF89
     /tmp/cc2gcxg5.s:3430   .debug_str:00000000000000c0 .LASF76
     /tmp/cc2gcxg5.s:3660   .debug_str:000000000000085f .LASF77
     /tmp/cc2gcxg5.s:3586   .debug_str:0000000000000579 .LASF78
     /tmp/cc2gcxg5.s:3606   .debug_str:0000000000000600 .LASF79
     /tmp/cc2gcxg5.s:3618   .debug_str:0000000000000667 .LASF80
     /tmp/cc2gcxg5.s:3648   .debug_str:00000000000007e5 .LASF130
     /tmp/cc2gcxg5.s:3640   .debug_str:00000000000007af .LASF81
     /tmp/cc2gcxg5.s:3546   .debug_str:000000000000042c .LASF83
     /tmp/cc2gcxg5.s:3524   .debug_str:0000000000000388 .LASF85
     /tmp/cc2gcxg5.s:3596   .debug_str:00000000000005b6 .LASF86
     /tmp/cc2gcxg5.s:3416   .debug_str:0000000000000071 .LASF88
     /tmp/cc2gcxg5.s:3568   .debug_str:00000000000004e3 .LASF90
     /tmp/cc2gcxg5.s:3572   .debug_str:0000000000000509 .LASF91
     /tmp/cc2gcxg5.s:3490   .debug_str:0000000000000270 .LASF92
     /tmp/cc2gcxg5.s:3486   .debug_str:000000000000024a .LASF131
     /tmp/cc2gcxg5.s:3644   .debug_str:00000000000007c6 .LASF93
     /tmp/cc2gcxg5.s:3528   .debug_str:00000000000003a5 .LASF132
     /tmp/cc2gcxg5.s:3512   .debug_str:0000000000000339 .LASF94
     /tmp/cc2gcxg5.s:3448   .debug_str:000000000000013d .LASF95
     /tmp/cc2gcxg5.s:3594   .debug_str:00000000000005a0 .LASF96
     /tmp/cc2gcxg5.s:3458   .debug_str:0000000000000198 .LASF97
     /tmp/cc2gcxg5.s:573    .text:00000000000002c8 .LFB44
     /tmp/cc2gcxg5.s:599    .text:00000000000002f0 .LFE44
     /tmp/cc2gcxg5.s:3167   .debug_loc:0000000000000000 .LLST12
     /tmp/cc2gcxg5.s:588    .text:00000000000002e0 .LVL40
     /tmp/cc2gcxg5.s:541    .text:00000000000002a0 .LFB43
     /tmp/cc2gcxg5.s:567    .text:00000000000002c8 .LFE43
     /tmp/cc2gcxg5.s:555    .text:00000000000002b8 .LVL38
     /tmp/cc2gcxg5.s:507    .text:0000000000000274 .LFB42
     /tmp/cc2gcxg5.s:535    .text:00000000000002a0 .LFE42
     /tmp/cc2gcxg5.s:3600   .debug_str:00000000000005e2 .LASF98
     /tmp/cc2gcxg5.s:3181   .debug_loc:0000000000000039 .LLST11
     /tmp/cc2gcxg5.s:524    .text:0000000000000290 .LVL37
     /tmp/cc2gcxg5.s:473    .text:0000000000000248 .LFB41
     /tmp/cc2gcxg5.s:501    .text:0000000000000274 .LFE41
     /tmp/cc2gcxg5.s:3195   .debug_loc:0000000000000072 .LLST10
     /tmp/cc2gcxg5.s:490    .text:0000000000000264 .LVL34
     /tmp/cc2gcxg5.s:3532   .debug_str:00000000000003d2 .LASF99
     /tmp/cc2gcxg5.s:3484   .debug_str:0000000000000238 .LASF100
     /tmp/cc2gcxg5.s:236    .text:0000000000000100 .LFB40
     /tmp/cc2gcxg5.s:269    .text:0000000000000140 .LFE40
     /tmp/cc2gcxg5.s:3209   .debug_loc:00000000000000ab .LLST6
     /tmp/cc2gcxg5.s:253    .text:0000000000000120 .LVL17
     /tmp/cc2gcxg5.s:256    .text:000000000000012c .LVL18
     /tmp/cc2gcxg5.s:3504   .debug_str:00000000000002f8 .LASF101
     /tmp/cc2gcxg5.s:186    .text:00000000000000c8 .LFB38
GAS LISTING /tmp/cc2gcxg5.s 			page 22


     /tmp/cc2gcxg5.s:221    .text:0000000000000100 .LFE38
     /tmp/cc2gcxg5.s:3227   .debug_loc:00000000000000f7 .LLST5
     /tmp/cc2gcxg5.s:209    .text:00000000000000f0 .LVL15
     /tmp/cc2gcxg5.s:3498   .debug_str:00000000000002b4 .LASF106
     /tmp/cc2gcxg5.s:3650   .debug_str:00000000000007f5 .LASF102
     /tmp/cc2gcxg5.s:432    .text:0000000000000210 .LFB35
     /tmp/cc2gcxg5.s:465    .text:0000000000000248 .LFE35
     /tmp/cc2gcxg5.s:3241   .debug_loc:0000000000000130 .LLST8
     /tmp/cc2gcxg5.s:3261   .debug_loc:000000000000017e .LLST9
     /tmp/cc2gcxg5.s:453    .text:0000000000000238 .LVL31
     /tmp/cc2gcxg5.s:37     .text:0000000000000000 .LFB33
     /tmp/cc2gcxg5.s:69     .text:000000000000002c .LFE33
     /tmp/cc2gcxg5.s:3275   .debug_loc:00000000000001b7 .LLST0
     /tmp/cc2gcxg5.s:3289   .debug_loc:00000000000001f0 .LLST1
     /tmp/cc2gcxg5.s:58     .text:000000000000001c .LVL3
     /tmp/cc2gcxg5.s:3460   .debug_str:000000000000019f .LASF103
     /tmp/cc2gcxg5.s:398    .text:00000000000001e8 .LFB31
     /tmp/cc2gcxg5.s:424    .text:0000000000000210 .LFE31
     /tmp/cc2gcxg5.s:367    .text:00000000000001c0 .LFB29
     /tmp/cc2gcxg5.s:392    .text:00000000000001e8 .LFE29
     /tmp/cc2gcxg5.s:381    .text:00000000000001d8 .LVL27
     /tmp/cc2gcxg5.s:3454   .debug_str:000000000000017e .LASF104
     /tmp/cc2gcxg5.s:147    .text:0000000000000088 .LFB28
     /tmp/cc2gcxg5.s:180    .text:00000000000000c8 .LFE28
     /tmp/cc2gcxg5.s:3303   .debug_loc:0000000000000229 .LLST4
     /tmp/cc2gcxg5.s:164    .text:00000000000000a8 .LVL10
     /tmp/cc2gcxg5.s:167    .text:00000000000000b4 .LVL11
     /tmp/cc2gcxg5.s:3630   .debug_str:00000000000006ae .LASF105
     /tmp/cc2gcxg5.s:75     .text:000000000000002c .LFB26
     /tmp/cc2gcxg5.s:131    .text:0000000000000088 .LFE26
     /tmp/cc2gcxg5.s:3321   .debug_loc:0000000000000275 .LLST2
     /tmp/cc2gcxg5.s:105    .text:0000000000000060 .LBB6
     /tmp/cc2gcxg5.s:117    .text:0000000000000074 .LBE6
     /tmp/cc2gcxg5.s:3335   .debug_loc:00000000000002ae .LLST3
     /tmp/cc2gcxg5.s:111    .text:0000000000000068 .LVL7
     /tmp/cc2gcxg5.s:114    .text:0000000000000074 .LVL8
     /tmp/cc2gcxg5.s:104    .text:0000000000000060 .LVL6
     /tmp/cc2gcxg5.s:3462   .debug_str:00000000000001ae .LASF107
     /tmp/cc2gcxg5.s:330    .text:0000000000000194 .LFB23
     /tmp/cc2gcxg5.s:359    .text:00000000000001c0 .LFE23
     /tmp/cc2gcxg5.s:275    .text:0000000000000140 .LFB21
     /tmp/cc2gcxg5.s:324    .text:0000000000000194 .LFE21
     /tmp/cc2gcxg5.s:3342   .debug_loc:00000000000002d1 .LLST7
     /tmp/cc2gcxg5.s:298    .text:0000000000000168 .LVL22
     /tmp/cc2gcxg5.s:320    .text:0000000000000190 .LVL25
     /tmp/cc2gcxg5.s:11     .text._ZN6Thread3runEv:0000000000000000 .LFB20
     /tmp/cc2gcxg5.s:30     .text._ZN6Thread3runEv:0000000000000018 .LFE20
     /tmp/cc2gcxg5.s:3482   .debug_str:000000000000022f .LASF108
     /tmp/cc2gcxg5.s:3614   .debug_str:000000000000064c .LASF109
     /tmp/cc2gcxg5.s:3508   .debug_str:0000000000000311 .LASF110
     /tmp/cc2gcxg5.s:3456   .debug_str:000000000000018d .LASF111
     /tmp/cc2gcxg5.s:3536   .debug_str:00000000000003ec .LASF112
     /tmp/cc2gcxg5.s:3552   .debug_str:000000000000046b .LASF113
     /tmp/cc2gcxg5.s:3668   .debug_str:00000000000008b6 .LASF133
     /tmp/cc2gcxg5.s:3562   .debug_str:00000000000004a7 .LASF114
     /tmp/cc2gcxg5.s:3626   .debug_str:000000000000069f .LASF115
     /tmp/cc2gcxg5.s:3432   .debug_str:00000000000000c5 .LASF116
GAS LISTING /tmp/cc2gcxg5.s 			page 23


     /tmp/cc2gcxg5.s:3476   .debug_str:000000000000020e .LASF117
     /tmp/cc2gcxg5.s:3598   .debug_str:00000000000005cd .LASF118
     /tmp/cc2gcxg5.s:3526   .debug_str:0000000000000395 .LASF119
     /tmp/cc2gcxg5.s:3578   .debug_str:0000000000000535 .LASF120
     /tmp/cc2gcxg5.s:3514   .debug_str:000000000000033e .LASF121
     /tmp/cc2gcxg5.s:576    .text:00000000000002c8 .LVL39
     /tmp/cc2gcxg5.s:510    .text:0000000000000274 .LVL35
     /tmp/cc2gcxg5.s:522    .text:0000000000000288 .LVL36
     /tmp/cc2gcxg5.s:476    .text:0000000000000248 .LVL32
     /tmp/cc2gcxg5.s:488    .text:000000000000025c .LVL33
     /tmp/cc2gcxg5.s:239    .text:0000000000000100 .LVL16
     /tmp/cc2gcxg5.s:264    .text:0000000000000138 .LVL19
     /tmp/cc2gcxg5.s:191    .text:00000000000000c8 .LVL13
     /tmp/cc2gcxg5.s:207    .text:00000000000000e8 .LVL14
     /tmp/cc2gcxg5.s:435    .text:0000000000000210 .LVL29
     /tmp/cc2gcxg5.s:451    .text:0000000000000230 .LVL30
     /tmp/cc2gcxg5.s:41     .text:0000000000000000 .LVL1
     /tmp/cc2gcxg5.s:51     .text:0000000000000010 .LVL2
     /tmp/cc2gcxg5.s:150    .text:0000000000000088 .LVL9
     /tmp/cc2gcxg5.s:175    .text:00000000000000c0 .LVL12
     /tmp/cc2gcxg5.s:80     .text:000000000000002c .LVL4
     /tmp/cc2gcxg5.s:102    .text:0000000000000058 .LVL5
     /tmp/cc2gcxg5.s:278    .text:0000000000000140 .LVL20
     /tmp/cc2gcxg5.s:296    .text:0000000000000160 .LVL21
     /tmp/cc2gcxg5.s:310    .text:0000000000000178 .LVL23
     /tmp/cc2gcxg5.s:318    .text:0000000000000188 .LVL24
     /tmp/cc2gcxg5.s:628    .debug_info:0000000000000000 .Ldebug_info0
     /tmp/cc2gcxg5.s:5      .text:0000000000000000 .Ltext0
     /tmp/cc2gcxg5.s:623    .text:00000000000002f0 .Letext0
     /tmp/cc2gcxg5.s:134    .gcc_except_table:0000000000000000 .LLSDA26
     /tmp/cc2gcxg5.s:223    .gcc_except_table:0000000000000004 .LLSDA38

UNDEFINED SYMBOLS
_ZN3TCBD1Ev
_ZN15MemoryAllocator15createAllocatorEv
_ZN15MemoryAllocator7deallocEPv
__gxx_personality_v0
_ZdlPv
_Z9sem_closeP13SemaforKernel
_Z13thread_createPP3TCBPFvPvES2_
_Z15thread_dispatchv
_Z8sem_openPP13SemaforKernelj
_Z8sem_waitP13SemaforKernel
_Z10sem_signalP13SemaforKernel
_Z4getcv
_Z4putcc
