GAS LISTING /tmp/ccC0Okb4.s 			page 1


   1              		.file	"test2.cpp"
   2              		.option pic
   3              		.option norelax
   4              		.text
   5              	.Ltext0:
   6              		.section	.rodata.str1.8,"aMS",@progbits,1
   7              		.align	3
   8              	.LC0:
   9 0000 413A2069 		.string	"A: i="
   9      3D00
  10 0006 0000     		.align	3
  11              	.LC1:
  12 0008 0A00     		.string	"\n"
  13 000a 00000000 		.align	3
  13      0000
  14              	.LC2:
  15 0010 41206669 		.string	"A finished!\n"
  15      6E697368 
  15      6564210A 
  15      00
  16              		.text
  17              		.align	2
  19              	_ZL11workerBodyAPv:
  20              	.LFB21:
  21              		.file 1 "src/test2.cpp"
   1:src/test2.cpp **** #include "../h/test2.hpp"
   2:src/test2.cpp **** 
   3:src/test2.cpp **** //void funkcijica(int a,int b,int c){
   4:src/test2.cpp **** //  if(a>b){
   5:src/test2.cpp **** //    printString("a>b\n");
   6:src/test2.cpp **** //  }
   7:src/test2.cpp **** //  if(c) printString("c>0\n");
   8:src/test2.cpp **** //}
   9:src/test2.cpp **** 
  10:src/test2.cpp **** 
  11:src/test2.cpp **** static volatile bool finishedA = false;
  12:src/test2.cpp **** 
  13:src/test2.cpp **** static uint64 fibonacci(uint64 n) {
  14:src/test2.cpp ****   if (n == 0 || n == 1) { return n; }
  15:src/test2.cpp ****   if (n % 10 == 0) { thread_dispatch(); }
  16:src/test2.cpp ****   return fibonacci(n - 1) + fibonacci(n - 2);
  17:src/test2.cpp **** }
  18:src/test2.cpp **** 
  19:src/test2.cpp **** static void workerBodyA(void* arg) {
  22              		.loc 1 19 36
  23              		.cfi_startproc
  24              	.LVL0:
  25 0000 130101FE 		addi	sp,sp,-32
  26              		.cfi_def_cfa_offset 32
  27 0004 233C1100 		sd	ra,24(sp)
  28 0008 23388100 		sd	s0,16(sp)
  29 000c 23349100 		sd	s1,8(sp)
  30 0010 23302101 		sd	s2,0(sp)
  31              		.cfi_offset 1, -8
  32              		.cfi_offset 8, -16
  33              		.cfi_offset 9, -24
  34              		.cfi_offset 18, -32
GAS LISTING /tmp/ccC0Okb4.s 			page 2


  35 0014 13040102 		addi	s0,sp,32
  36              		.cfi_def_cfa 8, 0
  20:src/test2.cpp ****   for (uint64 i = 0; i < 10; i++) {
  37              		.loc 1 20 3
  38              	.LVL1:
  39              	.LBB2:
  40              		.loc 1 20 15 is_stmt 0
  41 0018 13090000 		li	s2,0
  42 001c 6F008003 		j	.L7
  43              	.LVL2:
  44              	.L4:
  45              	.LBB3:
  46              	.LBB4:
  47              	.LBB5:
  21:src/test2.cpp ****     printString("A: i="); printInt(i); printString("\n");
  22:src/test2.cpp ****     for (uint64 j = 0; j < 10000; j++) {
  23:src/test2.cpp ****       for (uint64 k = 0; k < 30000; k++) { /* busy wait */ }
  24:src/test2.cpp ****       thread_dispatch();
  48              		.loc 1 24 7 is_stmt 1 discriminator 2
  49              		.loc 1 24 22 is_stmt 0 discriminator 2
  50 0020 97000000 		call	_Z15thread_dispatchv@plt
  50      E7800000 
  51              	.LVL3:
  52              	.LBE5:
  22:src/test2.cpp ****       for (uint64 k = 0; k < 30000; k++) { /* busy wait */ }
  53              		.loc 1 22 5 is_stmt 1 discriminator 2
  54 0028 93841400 		addi	s1,s1,1
  55              	.LVL4:
  56              	.L6:
  22:src/test2.cpp ****       for (uint64 k = 0; k < 30000; k++) { /* busy wait */ }
  57              		.loc 1 22 26 discriminator 1
  58 002c B7270000 		li	a5,8192
  59 0030 9387F770 		addi	a5,a5,1807
  60 0034 63EE9700 		bgtu	s1,a5,.L3
  61              	.LBB7:
  62              	.LBB6:
  23:src/test2.cpp ****       thread_dispatch();
  63              		.loc 1 23 19 is_stmt 0
  64 0038 13070000 		li	a4,0
  65              	.L5:
  66              	.LVL5:
  23:src/test2.cpp ****       thread_dispatch();
  67              		.loc 1 23 28 is_stmt 1 discriminator 3
  68 003c B7770000 		li	a5,28672
  69 0040 9387F752 		addi	a5,a5,1327
  70 0044 E3EEE7FC 		bgtu	a4,a5,.L4
  23:src/test2.cpp ****       thread_dispatch();
  71              		.loc 1 23 7 discriminator 2
  72 0048 13071700 		addi	a4,a4,1
  73              	.LVL6:
  74 004c 6FF01FFF 		j	.L5
  75              	.LVL7:
  76              	.L3:
  77              	.LBE6:
  78              	.LBE7:
  79              	.LBE4:
  80              	.LBE3:
GAS LISTING /tmp/ccC0Okb4.s 			page 3


  20:src/test2.cpp ****     printString("A: i="); printInt(i); printString("\n");
  81              		.loc 1 20 3 discriminator 2
  82 0050 13091900 		addi	s2,s2,1
  83              	.LVL8:
  84              	.L7:
  20:src/test2.cpp ****     printString("A: i="); printInt(i); printString("\n");
  85              		.loc 1 20 24 discriminator 1
  86 0054 93079000 		li	a5,9
  87 0058 63E02705 		bgtu	s2,a5,.L2
  88              	.LBB9:
  21:src/test2.cpp ****     for (uint64 j = 0; j < 10000; j++) {
  89              		.loc 1 21 5
  21:src/test2.cpp ****     for (uint64 j = 0; j < 10000; j++) {
  90              		.loc 1 21 16 is_stmt 0
  91 005c 17050000 		lla	a0,.LC0
  91      13050500 
  92 0064 97000000 		call	_Z11printStringPKc@plt
  92      E7800000 
  93              	.LVL9:
  21:src/test2.cpp ****     for (uint64 j = 0; j < 10000; j++) {
  94              		.loc 1 21 27 is_stmt 1
  21:src/test2.cpp ****     for (uint64 j = 0; j < 10000; j++) {
  95              		.loc 1 21 35 is_stmt 0
  96 006c 13060000 		li	a2,0
  97 0070 9305A000 		li	a1,10
  98 0074 1B050900 		sext.w	a0,s2
  99 0078 97000000 		call	_Z8printIntiii@plt
  99      E7800000 
 100              	.LVL10:
  21:src/test2.cpp ****     for (uint64 j = 0; j < 10000; j++) {
 101              		.loc 1 21 40 is_stmt 1
  21:src/test2.cpp ****     for (uint64 j = 0; j < 10000; j++) {
 102              		.loc 1 21 51 is_stmt 0
 103 0080 17050000 		lla	a0,.LC1
 103      13050500 
 104 0088 97000000 		call	_Z11printStringPKc@plt
 104      E7800000 
 105              	.LVL11:
  22:src/test2.cpp ****       for (uint64 k = 0; k < 30000; k++) { /* busy wait */ }
 106              		.loc 1 22 5 is_stmt 1
 107              	.LBB8:
  22:src/test2.cpp ****       for (uint64 k = 0; k < 30000; k++) { /* busy wait */ }
 108              		.loc 1 22 17 is_stmt 0
 109 0090 93040000 		li	s1,0
 110 0094 6FF09FF9 		j	.L6
 111              	.LVL12:
 112              	.L2:
 113              	.LBE8:
 114              	.LBE9:
 115              	.LBE2:
  25:src/test2.cpp ****     }
  26:src/test2.cpp ****   }
  27:src/test2.cpp ****   printString("A finished!\n");
 116              		.loc 1 27 3 is_stmt 1
 117              		.loc 1 27 14 is_stmt 0
 118 0098 17050000 		lla	a0,.LC2
 118      13050500 
GAS LISTING /tmp/ccC0Okb4.s 			page 4


 119 00a0 97000000 		call	_Z11printStringPKc@plt
 119      E7800000 
 120              	.LVL13:
  28:src/test2.cpp ****   finishedA = true;
 121              		.loc 1 28 3 is_stmt 1
 122              		.loc 1 28 13 is_stmt 0
 123 00a8 93071000 		li	a5,1
 124 00ac 17070000 		sb	a5,.LANCHOR0,a4
 124      2300F700 
  29:src/test2.cpp **** }
 125              		.loc 1 29 1
 126 00b4 83308101 		ld	ra,24(sp)
 127              		.cfi_restore 1
 128 00b8 03340101 		ld	s0,16(sp)
 129              		.cfi_restore 8
 130              		.cfi_def_cfa 2, 32
 131 00bc 83348100 		ld	s1,8(sp)
 132              		.cfi_restore 9
 133 00c0 03390100 		ld	s2,0(sp)
 134              		.cfi_restore 18
 135              	.LVL14:
 136 00c4 13010102 		addi	sp,sp,32
 137              		.cfi_def_cfa_offset 0
 138 00c8 67800000 		jr	ra
 139              		.cfi_endproc
 140              	.LFE21:
 142              		.section	.rodata.str1.8
 143 001d 000000   		.align	3
 144              	.LC3:
 145 0020 54687265 		.string	"ThreadA created\n"
 145      61644120 
 145      63726561 
 145      7465640A 
 145      00
 146              		.text
 147              		.align	2
 148              		.globl	_Z5test2v
 150              	_Z5test2v:
 151              	.LFB22:
  30:src/test2.cpp **** 
  31:src/test2.cpp **** 
  32:src/test2.cpp **** 
  33:src/test2.cpp **** void test2(){
 152              		.loc 1 33 13 is_stmt 1
 153              		.cfi_startproc
 154 00cc 130101FE 		addi	sp,sp,-32
 155              		.cfi_def_cfa_offset 32
 156 00d0 233C1100 		sd	ra,24(sp)
 157 00d4 23388100 		sd	s0,16(sp)
 158              		.cfi_offset 1, -8
 159              		.cfi_offset 8, -16
 160 00d8 13040102 		addi	s0,sp,32
 161              		.cfi_def_cfa 8, 0
  34:src/test2.cpp **** //  printString("Usli smo u test\n");
  35:src/test2.cpp **** //  funkcijica(1,2,3);
  36:src/test2.cpp **** //  thread_dispatch();
  37:src/test2.cpp **** //  funkcijica(2,1,3);
GAS LISTING /tmp/ccC0Okb4.s 			page 5


  38:src/test2.cpp **** //  printString("Zavrsen test\n");
  39:src/test2.cpp **** //
  40:src/test2.cpp **** //
  41:src/test2.cpp **** //  thread_t threads[4];
  42:src/test2.cpp **** //  thread_create(&threads[0], workerBodyA, nullptr);
  43:src/test2.cpp **** //  printString("ThreadA created\n");
  44:src/test2.cpp **** 
  45:src/test2.cpp ****   thread_t threads[1];
 162              		.loc 1 45 3
  46:src/test2.cpp ****   thread_create(&threads[0], workerBodyA, nullptr);
 163              		.loc 1 46 3
 164              		.loc 1 46 16 is_stmt 0
 165 00dc 13060000 		li	a2,0
 166 00e0 97050000 		lla	a1,_ZL11workerBodyAPv
 166      93850500 
 167 00e8 130584FE 		addi	a0,s0,-24
 168 00ec 97000000 		call	_Z13thread_createPP3TCBPFvPvES2_@plt
 168      E7800000 
 169              	.LVL15:
  47:src/test2.cpp **** //  thread_t newOne=TCB::createThread(&workerBodyA, nullptr,
  48:src/test2.cpp **** //new uint64[TCB::STACK_SIZE]
  49:src/test2.cpp **** //);
  50:src/test2.cpp ****   printString("ThreadA created\n");
 170              		.loc 1 50 3 is_stmt 1
 171              		.loc 1 50 14 is_stmt 0
 172 00f4 17050000 		lla	a0,.LC3
 172      13050500 
 173 00fc 97000000 		call	_Z11printStringPKc@plt
 173      E7800000 
 174              	.LVL16:
 175              	.L11:
  51:src/test2.cpp **** 
  52:src/test2.cpp ****   while (!finishedA) {
 176              		.loc 1 52 3 is_stmt 1
 177              		.loc 1 52 10
 178              		.loc 1 52 11 is_stmt 0
 179 0104 97070000 		lbu	a5,.LANCHOR0
 179      83C70700 
 180              		.loc 1 52 10
 181 010c 63980700 		bnez	a5,.L9
  53:src/test2.cpp ****     thread_dispatch();
 182              		.loc 1 53 5 is_stmt 1
 183              		.loc 1 53 20 is_stmt 0
 184 0110 97000000 		call	_Z15thread_dispatchv@plt
 184      E7800000 
 185              	.LVL17:
 186 0118 6FF0DFFE 		j	.L11
 187              	.L9:
  54:src/test2.cpp **** 
  55:src/test2.cpp ****   }
  56:src/test2.cpp **** 
  57:src/test2.cpp **** 
  58:src/test2.cpp **** }...
 188              		.loc 1 58 1
 189 011c 83308101 		ld	ra,24(sp)
 190              		.cfi_restore 1
 191 0120 03340101 		ld	s0,16(sp)
GAS LISTING /tmp/ccC0Okb4.s 			page 6


 192              		.cfi_restore 8
 193              		.cfi_def_cfa 2, 32
 194 0124 13010102 		addi	sp,sp,32
 195              		.cfi_def_cfa_offset 0
 196 0128 67800000 		jr	ra
 197              		.cfi_endproc
 198              	.LFE22:
 200              		.bss
 201              		.set	.LANCHOR0,. + 0
 204              	_ZL9finishedA:
 205 0000 00       		.zero	1
 206              		.text
 207              	.Letext0:
 208              		.file 2 "src/../h/../test/../h/../lib/hw.h"
 209              		.file 3 "src/../h/../test/../h/tcb.hpp"
 210              		.file 4 "src/../h/../test/../h/syscall_c.hpp"
 211              		.file 5 "src/../h/../test/printing.hpp"
GAS LISTING /tmp/ccC0Okb4.s 			page 7


DEFINED SYMBOLS
                            *ABS*:0000000000000000 test2.cpp
     /tmp/ccC0Okb4.s:19     .text:0000000000000000 _ZL11workerBodyAPv
     /tmp/ccC0Okb4.s:23     .text:0000000000000000 .L0 
     /tmp/ccC0Okb4.s:25     .text:0000000000000000 .L0 
     /tmp/ccC0Okb4.s:26     .text:0000000000000004 .L0 
     /tmp/ccC0Okb4.s:31     .text:0000000000000014 .L0 
     /tmp/ccC0Okb4.s:32     .text:0000000000000014 .L0 
     /tmp/ccC0Okb4.s:33     .text:0000000000000014 .L0 
     /tmp/ccC0Okb4.s:34     .text:0000000000000014 .L0 
     /tmp/ccC0Okb4.s:36     .text:0000000000000018 .L0 
     /tmp/ccC0Okb4.s:40     .text:0000000000000018 .L0 
     /tmp/ccC0Okb4.s:41     .text:0000000000000018 .L0 
     /tmp/ccC0Okb4.s:49     .text:0000000000000020 .L0 
     /tmp/ccC0Okb4.s:50     .text:0000000000000020 .L0 
     /tmp/ccC0Okb4.s:54     .text:0000000000000028 .L0 
     /tmp/ccC0Okb4.s:58     .text:000000000000002c .L0 
     /tmp/ccC0Okb4.s:64     .text:0000000000000038 .L0 
     /tmp/ccC0Okb4.s:68     .text:000000000000003c .L0 
     /tmp/ccC0Okb4.s:72     .text:0000000000000048 .L0 
     /tmp/ccC0Okb4.s:82     .text:0000000000000050 .L0 
     /tmp/ccC0Okb4.s:86     .text:0000000000000054 .L0 
     /tmp/ccC0Okb4.s:90     .text:000000000000005c .L0 
     /tmp/ccC0Okb4.s:91     .text:000000000000005c .L0 
     /tmp/ccC0Okb4.s:95     .text:000000000000006c .L0 
     /tmp/ccC0Okb4.s:96     .text:000000000000006c .L0 
     /tmp/ccC0Okb4.s:102    .text:0000000000000080 .L0 
     /tmp/ccC0Okb4.s:103    .text:0000000000000080 .L0 
     /tmp/ccC0Okb4.s:108    .text:0000000000000090 .L0 
     /tmp/ccC0Okb4.s:109    .text:0000000000000090 .L0 
     /tmp/ccC0Okb4.s:117    .text:0000000000000098 .L0 
     /tmp/ccC0Okb4.s:118    .text:0000000000000098 .L0 
     /tmp/ccC0Okb4.s:122    .text:00000000000000a8 .L0 
     /tmp/ccC0Okb4.s:123    .text:00000000000000a8 .L0 
     /tmp/ccC0Okb4.s:126    .text:00000000000000b4 .L0 
     /tmp/ccC0Okb4.s:127    .text:00000000000000b8 .L0 
     /tmp/ccC0Okb4.s:129    .text:00000000000000bc .L0 
     /tmp/ccC0Okb4.s:130    .text:00000000000000bc .L0 
     /tmp/ccC0Okb4.s:132    .text:00000000000000c0 .L0 
     /tmp/ccC0Okb4.s:134    .text:00000000000000c4 .L0 
     /tmp/ccC0Okb4.s:137    .text:00000000000000c8 .L0 
     /tmp/ccC0Okb4.s:139    .text:00000000000000cc .L0 
     /tmp/ccC0Okb4.s:150    .text:00000000000000cc _Z5test2v
     /tmp/ccC0Okb4.s:153    .text:00000000000000cc .L0 
     /tmp/ccC0Okb4.s:154    .text:00000000000000cc .L0 
     /tmp/ccC0Okb4.s:155    .text:00000000000000d0 .L0 
     /tmp/ccC0Okb4.s:158    .text:00000000000000d8 .L0 
     /tmp/ccC0Okb4.s:159    .text:00000000000000d8 .L0 
     /tmp/ccC0Okb4.s:161    .text:00000000000000dc .L0 
     /tmp/ccC0Okb4.s:163    .text:00000000000000dc .L0 
     /tmp/ccC0Okb4.s:164    .text:00000000000000dc .L0 
     /tmp/ccC0Okb4.s:165    .text:00000000000000dc .L0 
     /tmp/ccC0Okb4.s:171    .text:00000000000000f4 .L0 
     /tmp/ccC0Okb4.s:172    .text:00000000000000f4 .L0 
     /tmp/ccC0Okb4.s:177    .text:0000000000000104 .L0 
     /tmp/ccC0Okb4.s:178    .text:0000000000000104 .L0 
     /tmp/ccC0Okb4.s:179    .text:0000000000000104 .L0 
GAS LISTING /tmp/ccC0Okb4.s 			page 8


     /tmp/ccC0Okb4.s:181    .text:000000000000010c .L0 
     /tmp/ccC0Okb4.s:183    .text:0000000000000110 .L0 
     /tmp/ccC0Okb4.s:184    .text:0000000000000110 .L0 
     /tmp/ccC0Okb4.s:189    .text:000000000000011c .L0 
     /tmp/ccC0Okb4.s:190    .text:0000000000000120 .L0 
     /tmp/ccC0Okb4.s:192    .text:0000000000000124 .L0 
     /tmp/ccC0Okb4.s:193    .text:0000000000000124 .L0 
     /tmp/ccC0Okb4.s:195    .text:0000000000000128 .L0 
     /tmp/ccC0Okb4.s:197    .text:000000000000012c .L0 
     /tmp/ccC0Okb4.s:201    .bss:0000000000000000 .LANCHOR0
     /tmp/ccC0Okb4.s:204    .bss:0000000000000000 _ZL9finishedA
     /tmp/ccC0Okb4.s:212    .text:000000000000012c .L0 
     /tmp/ccC0Okb4.s:8      .rodata.str1.8:0000000000000000 .LC0
     /tmp/ccC0Okb4.s:91     .text:000000000000005c .L0 
     /tmp/ccC0Okb4.s:11     .rodata.str1.8:0000000000000008 .LC1
     /tmp/ccC0Okb4.s:103    .text:0000000000000080 .L0 
     /tmp/ccC0Okb4.s:14     .rodata.str1.8:0000000000000010 .LC2
     /tmp/ccC0Okb4.s:118    .text:0000000000000098 .L0 
     /tmp/ccC0Okb4.s:124    .text:00000000000000ac .L0 
     /tmp/ccC0Okb4.s:166    .text:00000000000000e0 .L0 
     /tmp/ccC0Okb4.s:144    .rodata.str1.8:0000000000000020 .LC3
     /tmp/ccC0Okb4.s:172    .text:00000000000000f4 .L0 
     /tmp/ccC0Okb4.s:179    .text:0000000000000104 .L0 
     /tmp/ccC0Okb4.s:84     .text:0000000000000054 .L7
     /tmp/ccC0Okb4.s:76     .text:0000000000000050 .L3
     /tmp/ccC0Okb4.s:44     .text:0000000000000020 .L4
     /tmp/ccC0Okb4.s:65     .text:000000000000003c .L5
     /tmp/ccC0Okb4.s:112    .text:0000000000000098 .L2
     /tmp/ccC0Okb4.s:56     .text:000000000000002c .L6
     /tmp/ccC0Okb4.s:187    .text:000000000000011c .L9
     /tmp/ccC0Okb4.s:175    .text:0000000000000104 .L11
     /tmp/ccC0Okb4.s:830    .debug_abbrev:0000000000000000 .Ldebug_abbrev0
     /tmp/ccC0Okb4.s:1681   .debug_str:0000000000000376 .LASF57
     /tmp/ccC0Okb4.s:1617   .debug_str:0000000000000177 .LASF58
     /tmp/ccC0Okb4.s:1583   .debug_str:000000000000007a .LASF59
     /tmp/ccC0Okb4.s:5      .text:0000000000000000 .Ltext0
     /tmp/ccC0Okb4.s:207    .text:000000000000012c .Letext0
     /tmp/ccC0Okb4.s:1559   .debug_line:0000000000000000 .Ldebug_line0
     /tmp/ccC0Okb4.s:1641   .debug_str:0000000000000237 .LASF0
     /tmp/ccC0Okb4.s:1651   .debug_str:0000000000000283 .LASF1
     /tmp/ccC0Okb4.s:1631   .debug_str:00000000000001dd .LASF2
     /tmp/ccC0Okb4.s:1621   .debug_str:00000000000001ad .LASF4
     /tmp/ccC0Okb4.s:1673   .debug_str:0000000000000335 .LASF3
     /tmp/ccC0Okb4.s:1571   .debug_str:0000000000000039 .LASF5
     /tmp/ccC0Okb4.s:1657   .debug_str:00000000000002c6 .LASF6
     /tmp/ccC0Okb4.s:1639   .debug_str:0000000000000224 .LASF7
     /tmp/ccC0Okb4.s:1687   .debug_str:0000000000000456 .LASF8
     /tmp/ccC0Okb4.s:1613   .debug_str:000000000000015d .LASF9
     /tmp/ccC0Okb4.s:1663   .debug_str:00000000000002ed .LASF10
     /tmp/ccC0Okb4.s:1683   .debug_str:000000000000043a .LASF11
     /tmp/ccC0Okb4.s:1573   .debug_str:0000000000000040 .LASF12
     /tmp/ccC0Okb4.s:1565   .debug_str:0000000000000015 .LASF13
     /tmp/ccC0Okb4.s:1579   .debug_str:0000000000000066 .LASF14
     /tmp/ccC0Okb4.s:1671   .debug_str:000000000000031f .LASF15
     /tmp/ccC0Okb4.s:1585   .debug_str:000000000000009d .LASF16
     /tmp/ccC0Okb4.s:1601   .debug_str:0000000000000104 .LASF17
     /tmp/ccC0Okb4.s:1569   .debug_str:0000000000000031 .LASF60
GAS LISTING /tmp/ccC0Okb4.s 			page 9


     /tmp/ccC0Okb4.s:1589   .debug_str:00000000000000c1 .LASF18
     /tmp/ccC0Okb4.s:1667   .debug_str:0000000000000306 .LASF20
     /tmp/ccC0Okb4.s:1659   .debug_str:00000000000002d9 .LASF44
     /tmp/ccC0Okb4.s:1611   .debug_str:0000000000000146 .LASF46
     /tmp/ccC0Okb4.s:1633   .debug_str:00000000000001eb .LASF19
     /tmp/ccC0Okb4.s:1695   .debug_str:0000000000000494 .LASF21
     /tmp/ccC0Okb4.s:1627   .debug_str:00000000000001c5 .LASF22
     /tmp/ccC0Okb4.s:1635   .debug_str:00000000000001f7 .LASF23
     /tmp/ccC0Okb4.s:1597   .debug_str:00000000000000e2 .LASF61
     /tmp/ccC0Okb4.s:1595   .debug_str:00000000000000da .LASF62
     /tmp/ccC0Okb4.s:1629   .debug_str:00000000000001d2 .LASF63
     /tmp/ccC0Okb4.s:1691   .debug_str:0000000000000474 .LASF24
     /tmp/ccC0Okb4.s:1679   .debug_str:000000000000036a .LASF25
     /tmp/ccC0Okb4.s:1675   .debug_str:0000000000000347 .LASF28
     /tmp/ccC0Okb4.s:1669   .debug_str:0000000000000312 .LASF30
     /tmp/ccC0Okb4.s:1609   .debug_str:0000000000000136 .LASF26
     /tmp/ccC0Okb4.s:1615   .debug_str:000000000000016b .LASF27
     /tmp/ccC0Okb4.s:1677   .debug_str:0000000000000357 .LASF29
     /tmp/ccC0Okb4.s:1575   .debug_str:0000000000000050 .LASF31
     /tmp/ccC0Okb4.s:1649   .debug_str:000000000000026c .LASF64
     /tmp/ccC0Okb4.s:1643   .debug_str:0000000000000244 .LASF32
     /tmp/ccC0Okb4.s:1599   .debug_str:00000000000000f1 .LASF34
     /tmp/ccC0Okb4.s:1689   .debug_str:0000000000000466 .LASF65
     /tmp/ccC0Okb4.s:1619   .debug_str:0000000000000185 .LASF66
     /tmp/ccC0Okb4.s:1591   .debug_str:00000000000000c6 .LASF33
     /tmp/ccC0Okb4.s:1647   .debug_str:0000000000000253 .LASF35
     /tmp/ccC0Okb4.s:1661   .debug_str:00000000000002e4 .LASF36
     /tmp/ccC0Okb4.s:1645   .debug_str:000000000000024d .LASF37
     /tmp/ccC0Okb4.s:1625   .debug_str:00000000000001bd .LASF38
     /tmp/ccC0Okb4.s:1623   .debug_str:00000000000001b4 .LASF39
     /tmp/ccC0Okb4.s:1581   .debug_str:0000000000000072 .LASF40
     /tmp/ccC0Okb4.s:1685   .debug_str:0000000000000449 .LASF41
     /tmp/ccC0Okb4.s:1561   .debug_str:0000000000000000 .LASF42
     /tmp/ccC0Okb4.s:1665   .debug_str:00000000000002fc .LASF43
     /tmp/ccC0Okb4.s:1593   .debug_str:00000000000000d4 .LASF45
     /tmp/ccC0Okb4.s:1637   .debug_str:000000000000021a .LASF47
     /tmp/ccC0Okb4.s:151    .text:00000000000000cc .LFB22
     /tmp/ccC0Okb4.s:198    .text:000000000000012c .LFE22
     /tmp/ccC0Okb4.s:1607   .debug_str:000000000000012e .LASF48
     /tmp/ccC0Okb4.s:169    .text:00000000000000f4 .LVL15
     /tmp/ccC0Okb4.s:174    .text:0000000000000104 .LVL16
     /tmp/ccC0Okb4.s:185    .text:0000000000000118 .LVL17
     /tmp/ccC0Okb4.s:1563   .debug_str:0000000000000009 .LASF67
     /tmp/ccC0Okb4.s:20     .text:0000000000000000 .LFB21
     /tmp/ccC0Okb4.s:140    .text:00000000000000cc .LFE21
     /tmp/ccC0Okb4.s:1489   .debug_loc:0000000000000000 .LLST0
     /tmp/ccC0Okb4.s:39     .text:0000000000000018 .LBB2
     /tmp/ccC0Okb4.s:115    .text:0000000000000098 .LBE2
     /tmp/ccC0Okb4.s:1503   .debug_loc:0000000000000039 .LLST1
     /tmp/ccC0Okb4.s:1551   .debug_ranges:0000000000000000 .Ldebug_ranges0
     /tmp/ccC0Okb4.s:1515   .debug_loc:0000000000000070 .LLST2
     /tmp/ccC0Okb4.s:62     .text:0000000000000038 .LBB6
     /tmp/ccC0Okb4.s:77     .text:0000000000000050 .LBE6
     /tmp/ccC0Okb4.s:1527   .debug_loc:00000000000000a7 .LLST3
     /tmp/ccC0Okb4.s:51     .text:0000000000000028 .LVL3
     /tmp/ccC0Okb4.s:93     .text:000000000000006c .LVL9
     /tmp/ccC0Okb4.s:100    .text:0000000000000080 .LVL10
GAS LISTING /tmp/ccC0Okb4.s 			page 10


     /tmp/ccC0Okb4.s:105    .text:0000000000000090 .LVL11
     /tmp/ccC0Okb4.s:120    .text:00000000000000a8 .LVL13
     /tmp/ccC0Okb4.s:1655   .debug_str:00000000000002a5 .LASF49
     /tmp/ccC0Okb4.s:1587   .debug_str:00000000000000b3 .LASF51
     /tmp/ccC0Okb4.s:1693   .debug_str:0000000000000481 .LASF50
     /tmp/ccC0Okb4.s:1567   .debug_str:0000000000000025 .LASF52
     /tmp/ccC0Okb4.s:1603   .debug_str:0000000000000109 .LASF53
     /tmp/ccC0Okb4.s:1605   .debug_str:000000000000011e .LASF54
     /tmp/ccC0Okb4.s:1653   .debug_str:0000000000000296 .LASF55
     /tmp/ccC0Okb4.s:1577   .debug_str:000000000000005d .LASF56
     /tmp/ccC0Okb4.s:24     .text:0000000000000000 .LVL0
     /tmp/ccC0Okb4.s:43     .text:0000000000000020 .LVL2
     /tmp/ccC0Okb4.s:38     .text:0000000000000018 .LVL1
     /tmp/ccC0Okb4.s:135    .text:00000000000000c4 .LVL14
     /tmp/ccC0Okb4.s:83     .text:0000000000000054 .LVL8
     /tmp/ccC0Okb4.s:111    .text:0000000000000098 .LVL12
     /tmp/ccC0Okb4.s:66     .text:000000000000003c .LVL5
     /tmp/ccC0Okb4.s:75     .text:0000000000000050 .LVL7
     /tmp/ccC0Okb4.s:213    .debug_info:0000000000000000 .Ldebug_info0
     /tmp/ccC0Okb4.s:46     .text:0000000000000020 .LBB4
     /tmp/ccC0Okb4.s:79     .text:0000000000000050 .LBE4
     /tmp/ccC0Okb4.s:107    .text:0000000000000090 .LBB8
     /tmp/ccC0Okb4.s:113    .text:0000000000000098 .LBE8

UNDEFINED SYMBOLS
_Z15thread_dispatchv
_Z11printStringPKc
_Z8printIntiii
_Z13thread_createPP3TCBPFvPvES2_
