GAS LISTING /tmp/ccCzNoWd.s 			page 1


   1              		.file	"buffer.cpp"
   2              		.option pic
   3              		.option norelax
   4              		.text
   5              	.Ltext0:
   6              		.section	.rodata.str1.8,"aMS",@progbits,1
   7              		.align	3
   8              	.LC0:
   9 0000 5B427566 		.string	"[Buffer::Buffer] cap="
   9      6665723A 
   9      3A427566 
   9      6665725D 
   9      20636170 
  10 0016 0000     		.align	3
  11              	.LC1:
  12 0018 5B427566 		.string	"[Buffer::Buffer] ERROR: mem_alloc failed!\n"
  12      6665723A 
  12      3A427566 
  12      6665725D 
  12      20455252 
  13 0043 00000000 		.align	3
  13      00
  14              	.LC2:
  15 0048 5B427566 		.string	"[Buffer::Buffer] mem_alloc OK, address: "
  15      6665723A 
  15      3A427566 
  15      6665725D 
  15      206D656D 
  16              		.text
  17              		.align	2
  18              		.globl	_ZN6BufferC2Ei
  20              	_ZN6BufferC2Ei:
  21              	.LFB21:
  22              		.file 1 "test/buffer.cpp"
   1:test/buffer.cpp **** #include "buffer.hpp"
   2:test/buffer.cpp **** #include "../lib/mem.h"
   3:test/buffer.cpp **** #include "../lib/console.h"
   4:test/buffer.cpp **** 
   5:test/buffer.cpp **** Buffer::Buffer(int _cap) : cap(_cap + 1), head(0), tail(0) {
  23              		.loc 1 5 1
  24              		.cfi_startproc
  25              	.LVL0:
  26 0000 130101FE 		addi	sp,sp,-32
  27              		.cfi_def_cfa_offset 32
  28 0004 233C1100 		sd	ra,24(sp)
  29 0008 23388100 		sd	s0,16(sp)
  30 000c 23349100 		sd	s1,8(sp)
  31 0010 23302101 		sd	s2,0(sp)
  32              		.cfi_offset 1, -8
  33              		.cfi_offset 8, -16
  34              		.cfi_offset 9, -24
  35              		.cfi_offset 18, -32
  36 0014 13040102 		addi	s0,sp,32
  37              		.cfi_def_cfa 8, 0
  38 0018 93040500 		mv	s1,a0
  39 001c 13890500 		mv	s2,a1
  40              	.LBB2:
GAS LISTING /tmp/ccCzNoWd.s 			page 2


  41              		.loc 1 5 37 is_stmt 0
  42 0020 9B871500 		addiw	a5,a1,1
  43              		.loc 1 5 58
  44 0024 2320F500 		sw	a5,0(a0)
  45 0028 23280500 		sw	zero,16(a0)
  46 002c 232A0500 		sw	zero,20(a0)
   6:test/buffer.cpp ****     printString("[Buffer::Buffer] cap="); printInt(cap); putc('\n');
  47              		.loc 1 6 5 is_stmt 1
  48              		.loc 1 6 16 is_stmt 0
  49 0030 17050000 		lla	a0,.LC0
  49      13050500 
  50              	.LVL1:
  51 0038 97000000 		call	_Z11printStringPKc@plt
  51      E7800000 
  52              	.LVL2:
  53              		.loc 1 6 43 is_stmt 1
  54              		.loc 1 6 51 is_stmt 0
  55 0040 13060000 		li	a2,0
  56 0044 9305A000 		li	a1,10
  57 0048 03A50400 		lw	a0,0(s1)
  58 004c 97000000 		call	_Z8printIntiii@plt
  58      E7800000 
  59              	.LVL3:
  60              		.loc 1 6 58 is_stmt 1
  61              		.loc 1 6 62 is_stmt 0
  62 0054 1305A000 		li	a0,10
  63 0058 97000000 		call	_Z4putcc@plt
  63      E7800000 
  64              	.LVL4:
   7:test/buffer.cpp **** 
   8:test/buffer.cpp ****     buffer = (int *)mem_alloc(sizeof(int) * cap);
  65              		.loc 1 8 5 is_stmt 1
  66              		.loc 1 8 45 is_stmt 0
  67 0060 03A50400 		lw	a0,0(s1)
  68              		.loc 1 8 30
  69 0064 13152500 		slli	a0,a0,2
  70 0068 97000000 		call	_Z9mem_allocm@plt
  70      E7800000 
  71              	.LVL5:
  72              		.loc 1 8 12
  73 0070 23B4A400 		sd	a0,8(s1)
   9:test/buffer.cpp ****     //buffer=(int*) MemoryAllocator::createAllocator()->alloc(sizeof(int) * cap);
  10:test/buffer.cpp **** 
  11:test/buffer.cpp ****     if (!buffer) {
  74              		.loc 1 11 5 is_stmt 1
  75 0074 63060508 		beqz	a0,.L5
  12:test/buffer.cpp ****         printString("[Buffer::Buffer] ERROR: mem_alloc failed!\n");
  13:test/buffer.cpp ****     } else {
  14:test/buffer.cpp ****         printString("[Buffer::Buffer] mem_alloc OK, address: ");
  76              		.loc 1 14 9
  77              		.loc 1 14 20 is_stmt 0
  78 0078 17050000 		lla	a0,.LC2
  78      13050500 
  79 0080 97000000 		call	_Z11printStringPKc@plt
  79      E7800000 
  80              	.LVL6:
  15:test/buffer.cpp ****         printInt((uint64)buffer); putc('\n');
GAS LISTING /tmp/ccCzNoWd.s 			page 3


  81              		.loc 1 15 9 is_stmt 1
  82              		.loc 1 15 17 is_stmt 0
  83 0088 13060000 		li	a2,0
  84 008c 9305A000 		li	a1,10
  85 0090 03A58400 		lw	a0,8(s1)
  86 0094 97000000 		call	_Z8printIntiii@plt
  86      E7800000 
  87              	.LVL7:
  88              		.loc 1 15 35 is_stmt 1
  89              		.loc 1 15 39 is_stmt 0
  90 009c 1305A000 		li	a0,10
  91 00a0 97000000 		call	_Z4putcc@plt
  91      E7800000 
  92              	.LVL8:
  93              	.L3:
  16:test/buffer.cpp ****     }
  17:test/buffer.cpp ****     sem_open(&itemAvailable, 0);
  94              		.loc 1 17 5 is_stmt 1
  95              		.loc 1 17 13 is_stmt 0
  96 00a8 93050000 		li	a1,0
  97 00ac 13850402 		addi	a0,s1,32
  98 00b0 97000000 		call	_Z8sem_openPP13SemaforKernelj@plt
  98      E7800000 
  99              	.LVL9:
  18:test/buffer.cpp ****     sem_open(&spaceAvailable, _cap);
 100              		.loc 1 18 5 is_stmt 1
 101              		.loc 1 18 13 is_stmt 0
 102 00b8 93050900 		mv	a1,s2
 103 00bc 13858401 		addi	a0,s1,24
 104 00c0 97000000 		call	_Z8sem_openPP13SemaforKernelj@plt
 104      E7800000 
 105              	.LVL10:
  19:test/buffer.cpp ****     sem_open(&mutexHead, 1);
 106              		.loc 1 19 5 is_stmt 1
 107              		.loc 1 19 13 is_stmt 0
 108 00c8 93051000 		li	a1,1
 109 00cc 13858402 		addi	a0,s1,40
 110 00d0 97000000 		call	_Z8sem_openPP13SemaforKernelj@plt
 110      E7800000 
 111              	.LVL11:
  20:test/buffer.cpp ****     sem_open(&mutexTail, 1);
 112              		.loc 1 20 5 is_stmt 1
 113              		.loc 1 20 13 is_stmt 0
 114 00d8 93051000 		li	a1,1
 115 00dc 13850403 		addi	a0,s1,48
 116 00e0 97000000 		call	_Z8sem_openPP13SemaforKernelj@plt
 116      E7800000 
 117              	.LVL12:
 118              	.LBE2:
  21:test/buffer.cpp **** }
 119              		.loc 1 21 1
 120 00e8 83308101 		ld	ra,24(sp)
 121              		.cfi_remember_state
 122              		.cfi_restore 1
 123 00ec 03340101 		ld	s0,16(sp)
 124              		.cfi_restore 8
 125              		.cfi_def_cfa 2, 32
GAS LISTING /tmp/ccCzNoWd.s 			page 4


 126 00f0 83348100 		ld	s1,8(sp)
 127              		.cfi_restore 9
 128              	.LVL13:
 129 00f4 03390100 		ld	s2,0(sp)
 130              		.cfi_restore 18
 131 00f8 13010102 		addi	sp,sp,32
 132              		.cfi_def_cfa_offset 0
 133 00fc 67800000 		jr	ra
 134              	.LVL14:
 135              	.L5:
 136              		.cfi_restore_state
 137              	.LBB3:
  12:test/buffer.cpp ****     } else {
 138              		.loc 1 12 9 is_stmt 1
  12:test/buffer.cpp ****     } else {
 139              		.loc 1 12 20 is_stmt 0
 140 0100 17050000 		lla	a0,.LC1
 140      13050500 
 141 0108 97000000 		call	_Z11printStringPKc@plt
 141      E7800000 
 142              	.LVL15:
 143 0110 6FF09FF9 		j	.L3
 144              	.LBE3:
 145              		.cfi_endproc
 146              	.LFE21:
 148              		.globl	_ZN6BufferC1Ei
 149              		.set	_ZN6BufferC1Ei,_ZN6BufferC2Ei
 150              		.align	2
 151              		.globl	_ZN6Buffer3putEi
 153              	_ZN6Buffer3putEi:
 154              	.LFB26:
  22:test/buffer.cpp **** 
  23:test/buffer.cpp **** Buffer::~Buffer() {
  24:test/buffer.cpp ****     putc('\n');
  25:test/buffer.cpp ****     printString("Buffer deleted!\n");
  26:test/buffer.cpp ****     while (getCnt() > 0) {
  27:test/buffer.cpp ****         char ch = buffer[head];
  28:test/buffer.cpp ****         putc(ch);
  29:test/buffer.cpp ****         head = (head + 1) % cap;
  30:test/buffer.cpp ****     }
  31:test/buffer.cpp ****     putc('!');
  32:test/buffer.cpp ****     putc('\n');
  33:test/buffer.cpp **** 
  34:test/buffer.cpp ****     mem_free(buffer);
  35:test/buffer.cpp ****     sem_close(itemAvailable);
  36:test/buffer.cpp ****     sem_close(spaceAvailable);
  37:test/buffer.cpp ****     sem_close(mutexTail);
  38:test/buffer.cpp ****     sem_close(mutexHead);
  39:test/buffer.cpp **** }
  40:test/buffer.cpp **** 
  41:test/buffer.cpp **** void Buffer::put(int val) {
 155              		.loc 1 41 27 is_stmt 1
 156              		.cfi_startproc
 157              	.LVL16:
 158 0114 130101FE 		addi	sp,sp,-32
 159              		.cfi_def_cfa_offset 32
 160 0118 233C1100 		sd	ra,24(sp)
GAS LISTING /tmp/ccCzNoWd.s 			page 5


 161 011c 23388100 		sd	s0,16(sp)
 162 0120 23349100 		sd	s1,8(sp)
 163 0124 23302101 		sd	s2,0(sp)
 164              		.cfi_offset 1, -8
 165              		.cfi_offset 8, -16
 166              		.cfi_offset 9, -24
 167              		.cfi_offset 18, -32
 168 0128 13040102 		addi	s0,sp,32
 169              		.cfi_def_cfa 8, 0
 170 012c 93040500 		mv	s1,a0
 171 0130 13890500 		mv	s2,a1
  42:test/buffer.cpp ****     sem_wait(spaceAvailable);
 172              		.loc 1 42 5
 173              		.loc 1 42 13 is_stmt 0
 174 0134 03358501 		ld	a0,24(a0)
 175              	.LVL17:
 176 0138 97000000 		call	_Z8sem_waitP13SemaforKernel@plt
 176      E7800000 
 177              	.LVL18:
  43:test/buffer.cpp **** 
  44:test/buffer.cpp ****     sem_wait(mutexTail);
 178              		.loc 1 44 5 is_stmt 1
 179              		.loc 1 44 13 is_stmt 0
 180 0140 03B50403 		ld	a0,48(s1)
 181 0144 97000000 		call	_Z8sem_waitP13SemaforKernel@plt
 181      E7800000 
 182              	.LVL19:
  45:test/buffer.cpp ****     buffer[tail] = val;
 183              		.loc 1 45 5 is_stmt 1
 184 014c 83B78400 		ld	a5,8(s1)
 185              		.loc 1 45 12 is_stmt 0
 186 0150 03A74401 		lw	a4,20(s1)
 187              		.loc 1 45 16
 188 0154 13172700 		slli	a4,a4,2
 189 0158 B387E700 		add	a5,a5,a4
 190              		.loc 1 45 18
 191 015c 23A02701 		sw	s2,0(a5)
  46:test/buffer.cpp ****     tail = (tail + 1) % cap;
 192              		.loc 1 46 5 is_stmt 1
 193              		.loc 1 46 13 is_stmt 0
 194 0160 83A74401 		lw	a5,20(s1)
 195              		.loc 1 46 18
 196 0164 9B871700 		addiw	a5,a5,1
 197              		.loc 1 46 25
 198 0168 03A70400 		lw	a4,0(s1)
 199              		.loc 1 46 23
 200 016c BBE7E702 		remw	a5,a5,a4
 201              		.loc 1 46 10
 202 0170 23AAF400 		sw	a5,20(s1)
  47:test/buffer.cpp ****     sem_signal(mutexTail);
 203              		.loc 1 47 5 is_stmt 1
 204              		.loc 1 47 15 is_stmt 0
 205 0174 03B50403 		ld	a0,48(s1)
 206 0178 97000000 		call	_Z10sem_signalP13SemaforKernel@plt
 206      E7800000 
 207              	.LVL20:
  48:test/buffer.cpp **** 
GAS LISTING /tmp/ccCzNoWd.s 			page 6


  49:test/buffer.cpp ****     sem_signal(itemAvailable);
 208              		.loc 1 49 5 is_stmt 1
 209              		.loc 1 49 15 is_stmt 0
 210 0180 03B50402 		ld	a0,32(s1)
 211 0184 97000000 		call	_Z10sem_signalP13SemaforKernel@plt
 211      E7800000 
 212              	.LVL21:
  50:test/buffer.cpp **** 
  51:test/buffer.cpp **** }
 213              		.loc 1 51 1
 214 018c 83308101 		ld	ra,24(sp)
 215              		.cfi_restore 1
 216 0190 03340101 		ld	s0,16(sp)
 217              		.cfi_restore 8
 218              		.cfi_def_cfa 2, 32
 219 0194 83348100 		ld	s1,8(sp)
 220              		.cfi_restore 9
 221              	.LVL22:
 222 0198 03390100 		ld	s2,0(sp)
 223              		.cfi_restore 18
 224 019c 13010102 		addi	sp,sp,32
 225              		.cfi_def_cfa_offset 0
 226 01a0 67800000 		jr	ra
 227              		.cfi_endproc
 228              	.LFE26:
 230              		.align	2
 231              		.globl	_ZN6Buffer3getEv
 233              	_ZN6Buffer3getEv:
 234              	.LFB27:
  52:test/buffer.cpp **** 
  53:test/buffer.cpp **** int Buffer::get() {
 235              		.loc 1 53 19 is_stmt 1
 236              		.cfi_startproc
 237              	.LVL23:
 238 01a4 130101FE 		addi	sp,sp,-32
 239              		.cfi_def_cfa_offset 32
 240 01a8 233C1100 		sd	ra,24(sp)
 241 01ac 23388100 		sd	s0,16(sp)
 242 01b0 23349100 		sd	s1,8(sp)
 243 01b4 23302101 		sd	s2,0(sp)
 244              		.cfi_offset 1, -8
 245              		.cfi_offset 8, -16
 246              		.cfi_offset 9, -24
 247              		.cfi_offset 18, -32
 248 01b8 13040102 		addi	s0,sp,32
 249              		.cfi_def_cfa 8, 0
 250 01bc 93040500 		mv	s1,a0
  54:test/buffer.cpp ****     sem_wait(itemAvailable);
 251              		.loc 1 54 5
 252              		.loc 1 54 13 is_stmt 0
 253 01c0 03350502 		ld	a0,32(a0)
 254              	.LVL24:
 255 01c4 97000000 		call	_Z8sem_waitP13SemaforKernel@plt
 255      E7800000 
 256              	.LVL25:
  55:test/buffer.cpp **** 
  56:test/buffer.cpp ****     sem_wait(mutexHead);
GAS LISTING /tmp/ccCzNoWd.s 			page 7


 257              		.loc 1 56 5 is_stmt 1
 258              		.loc 1 56 13 is_stmt 0
 259 01cc 03B58402 		ld	a0,40(s1)
 260 01d0 97000000 		call	_Z8sem_waitP13SemaforKernel@plt
 260      E7800000 
 261              	.LVL26:
  57:test/buffer.cpp **** 
  58:test/buffer.cpp ****     int ret = buffer[head];
 262              		.loc 1 58 5 is_stmt 1
 263              		.loc 1 58 15 is_stmt 0
 264 01d8 03B78400 		ld	a4,8(s1)
 265              		.loc 1 58 22
 266 01dc 83A70401 		lw	a5,16(s1)
 267              		.loc 1 58 26
 268 01e0 93962700 		slli	a3,a5,2
 269 01e4 3307D700 		add	a4,a4,a3
 270              		.loc 1 58 9
 271 01e8 03290700 		lw	s2,0(a4)
 272              	.LVL27:
  59:test/buffer.cpp ****     head = (head + 1) % cap;
 273              		.loc 1 59 5 is_stmt 1
 274              		.loc 1 59 18 is_stmt 0
 275 01ec 9B871700 		addiw	a5,a5,1
 276              		.loc 1 59 25
 277 01f0 03A70400 		lw	a4,0(s1)
 278              		.loc 1 59 23
 279 01f4 BBE7E702 		remw	a5,a5,a4
 280              		.loc 1 59 10
 281 01f8 23A8F400 		sw	a5,16(s1)
  60:test/buffer.cpp ****     sem_signal(mutexHead);
 282              		.loc 1 60 5 is_stmt 1
 283              		.loc 1 60 15 is_stmt 0
 284 01fc 03B58402 		ld	a0,40(s1)
 285 0200 97000000 		call	_Z10sem_signalP13SemaforKernel@plt
 285      E7800000 
 286              	.LVL28:
  61:test/buffer.cpp **** 
  62:test/buffer.cpp ****     sem_signal(spaceAvailable);
 287              		.loc 1 62 5 is_stmt 1
 288              		.loc 1 62 15 is_stmt 0
 289 0208 03B58401 		ld	a0,24(s1)
 290 020c 97000000 		call	_Z10sem_signalP13SemaforKernel@plt
 290      E7800000 
 291              	.LVL29:
  63:test/buffer.cpp **** 
  64:test/buffer.cpp ****     return ret;
 292              		.loc 1 64 5 is_stmt 1
  65:test/buffer.cpp **** }
 293              		.loc 1 65 1 is_stmt 0
 294 0214 13050900 		mv	a0,s2
 295 0218 83308101 		ld	ra,24(sp)
 296              		.cfi_restore 1
 297 021c 03340101 		ld	s0,16(sp)
 298              		.cfi_restore 8
 299              		.cfi_def_cfa 2, 32
 300 0220 83348100 		ld	s1,8(sp)
 301              		.cfi_restore 9
GAS LISTING /tmp/ccCzNoWd.s 			page 8


 302              	.LVL30:
 303 0224 03390100 		ld	s2,0(sp)
 304              		.cfi_restore 18
 305              	.LVL31:
 306 0228 13010102 		addi	sp,sp,32
 307              		.cfi_def_cfa_offset 0
 308 022c 67800000 		jr	ra
 309              		.cfi_endproc
 310              	.LFE27:
 312              		.align	2
 313              		.globl	_ZN6Buffer6getCntEv
 315              	_ZN6Buffer6getCntEv:
 316              	.LFB28:
  66:test/buffer.cpp **** 
  67:test/buffer.cpp **** int Buffer::getCnt() {
 317              		.loc 1 67 22 is_stmt 1
 318              		.cfi_startproc
 319              	.LVL32:
 320 0230 130101FE 		addi	sp,sp,-32
 321              		.cfi_def_cfa_offset 32
 322 0234 233C1100 		sd	ra,24(sp)
 323 0238 23388100 		sd	s0,16(sp)
 324 023c 23349100 		sd	s1,8(sp)
 325 0240 23302101 		sd	s2,0(sp)
 326              		.cfi_offset 1, -8
 327              		.cfi_offset 8, -16
 328              		.cfi_offset 9, -24
 329              		.cfi_offset 18, -32
 330 0244 13040102 		addi	s0,sp,32
 331              		.cfi_def_cfa 8, 0
 332 0248 93040500 		mv	s1,a0
  68:test/buffer.cpp ****     int ret;
 333              		.loc 1 68 5
  69:test/buffer.cpp **** 
  70:test/buffer.cpp ****     sem_wait(mutexHead);
 334              		.loc 1 70 5
 335              		.loc 1 70 13 is_stmt 0
 336 024c 03358502 		ld	a0,40(a0)
 337              	.LVL33:
 338 0250 97000000 		call	_Z8sem_waitP13SemaforKernel@plt
 338      E7800000 
 339              	.LVL34:
  71:test/buffer.cpp ****     sem_wait(mutexTail);
 340              		.loc 1 71 5 is_stmt 1
 341              		.loc 1 71 13 is_stmt 0
 342 0258 03B50403 		ld	a0,48(s1)
 343 025c 97000000 		call	_Z8sem_waitP13SemaforKernel@plt
 343      E7800000 
 344              	.LVL35:
  72:test/buffer.cpp **** 
  73:test/buffer.cpp ****     if (tail >= head) {
 345              		.loc 1 73 5 is_stmt 1
 346              		.loc 1 73 9 is_stmt 0
 347 0264 83A74401 		lw	a5,20(s1)
 348              		.loc 1 73 17
 349 0268 03A90401 		lw	s2,16(s1)
 350              		.loc 1 73 5
GAS LISTING /tmp/ccCzNoWd.s 			page 9


 351 026c 63CE2703 		blt	a5,s2,.L11
  74:test/buffer.cpp ****         ret = tail - head;
 352              		.loc 1 74 9 is_stmt 1
 353              		.loc 1 74 13 is_stmt 0
 354 0270 3B892741 		subw	s2,a5,s2
 355              	.LVL36:
 356              	.L12:
  75:test/buffer.cpp ****     } else {
  76:test/buffer.cpp ****         ret = cap - head + tail;
  77:test/buffer.cpp ****     }
  78:test/buffer.cpp **** 
  79:test/buffer.cpp ****     sem_signal(mutexTail);
 357              		.loc 1 79 5 is_stmt 1
 358              		.loc 1 79 15 is_stmt 0
 359 0274 03B50403 		ld	a0,48(s1)
 360 0278 97000000 		call	_Z10sem_signalP13SemaforKernel@plt
 360      E7800000 
 361              	.LVL37:
  80:test/buffer.cpp ****     sem_signal(mutexHead);
 362              		.loc 1 80 5 is_stmt 1
 363              		.loc 1 80 15 is_stmt 0
 364 0280 03B58402 		ld	a0,40(s1)
 365 0284 97000000 		call	_Z10sem_signalP13SemaforKernel@plt
 365      E7800000 
 366              	.LVL38:
  81:test/buffer.cpp **** 
  82:test/buffer.cpp ****     return ret;
 367              		.loc 1 82 5 is_stmt 1
  83:test/buffer.cpp **** }
 368              		.loc 1 83 1 is_stmt 0
 369 028c 13050900 		mv	a0,s2
 370 0290 83308101 		ld	ra,24(sp)
 371              		.cfi_remember_state
 372              		.cfi_restore 1
 373 0294 03340101 		ld	s0,16(sp)
 374              		.cfi_restore 8
 375              		.cfi_def_cfa 2, 32
 376 0298 83348100 		ld	s1,8(sp)
 377              		.cfi_restore 9
 378              	.LVL39:
 379 029c 03390100 		ld	s2,0(sp)
 380              		.cfi_restore 18
 381              	.LVL40:
 382 02a0 13010102 		addi	sp,sp,32
 383              		.cfi_def_cfa_offset 0
 384 02a4 67800000 		jr	ra
 385              	.LVL41:
 386              	.L11:
 387              		.cfi_restore_state
  76:test/buffer.cpp ****     }
 388              		.loc 1 76 9 is_stmt 1
  76:test/buffer.cpp ****     }
 389              		.loc 1 76 15 is_stmt 0
 390 02a8 03A70400 		lw	a4,0(s1)
  76:test/buffer.cpp ****     }
 391              		.loc 1 76 19
 392 02ac 3B092741 		subw	s2,a4,s2
GAS LISTING /tmp/ccCzNoWd.s 			page 10


  76:test/buffer.cpp ****     }
 393              		.loc 1 76 13
 394 02b0 3B09F900 		addw	s2,s2,a5
 395 02b4 6FF01FFC 		j	.L12
 396              		.cfi_endproc
 397              	.LFE28:
 399              		.section	.rodata.str1.8
 400 0071 00000000 		.align	3
 400      000000
 401              	.LC3:
 402 0078 42756666 		.string	"Buffer deleted!\n"
 402      65722064 
 402      656C6574 
 402      6564210A 
 402      00
 403              		.text
 404              		.align	2
 405              		.globl	_ZN6BufferD2Ev
 407              	_ZN6BufferD2Ev:
 408              	.LFB24:
  23:test/buffer.cpp ****     putc('\n');
 409              		.loc 1 23 1 is_stmt 1
 410              		.cfi_startproc
 411              		.cfi_personality 0x9b,DW.ref.__gxx_personality_v0
 412              		.cfi_lsda 0x1b,.LLSDA24
 413              	.LVL42:
 414 02b8 130101FE 		addi	sp,sp,-32
 415              		.cfi_def_cfa_offset 32
 416 02bc 233C1100 		sd	ra,24(sp)
 417 02c0 23388100 		sd	s0,16(sp)
 418 02c4 23349100 		sd	s1,8(sp)
 419              		.cfi_offset 1, -8
 420              		.cfi_offset 8, -16
 421              		.cfi_offset 9, -24
 422 02c8 13040102 		addi	s0,sp,32
 423              		.cfi_def_cfa 8, 0
 424 02cc 93040500 		mv	s1,a0
 425              	.LBB4:
  24:test/buffer.cpp ****     printString("Buffer deleted!\n");
 426              		.loc 1 24 5
  24:test/buffer.cpp ****     printString("Buffer deleted!\n");
 427              		.loc 1 24 9 is_stmt 0
 428 02d0 1305A000 		li	a0,10
 429              	.LVL43:
 430 02d4 97000000 		call	_Z4putcc@plt
 430      E7800000 
 431              	.LVL44:
  25:test/buffer.cpp ****     while (getCnt() > 0) {
 432              		.loc 1 25 5 is_stmt 1
  25:test/buffer.cpp ****     while (getCnt() > 0) {
 433              		.loc 1 25 16 is_stmt 0
 434 02dc 17050000 		lla	a0,.LC3
 434      13050500 
 435 02e4 97000000 		call	_Z11printStringPKc@plt
 435      E7800000 
 436              	.LVL45:
 437              	.L16:
GAS LISTING /tmp/ccCzNoWd.s 			page 11


  26:test/buffer.cpp ****         char ch = buffer[head];
 438              		.loc 1 26 5 is_stmt 1
  26:test/buffer.cpp ****         char ch = buffer[head];
 439              		.loc 1 26 21
  26:test/buffer.cpp ****         char ch = buffer[head];
 440              		.loc 1 26 18 is_stmt 0
 441 02ec 13850400 		mv	a0,s1
 442 02f0 97000000 		call	_ZN6Buffer6getCntEv
 442      E7800000 
 443              	.LVL46:
  26:test/buffer.cpp ****         char ch = buffer[head];
 444              		.loc 1 26 21
 445 02f8 635CA002 		blez	a0,.L15
 446              	.LBB5:
  27:test/buffer.cpp ****         putc(ch);
 447              		.loc 1 27 9 is_stmt 1
  27:test/buffer.cpp ****         putc(ch);
 448              		.loc 1 27 19 is_stmt 0
 449 02fc 83B78400 		ld	a5,8(s1)
  27:test/buffer.cpp ****         putc(ch);
 450              		.loc 1 27 26
 451 0300 03A70401 		lw	a4,16(s1)
  27:test/buffer.cpp ****         putc(ch);
 452              		.loc 1 27 30
 453 0304 13172700 		slli	a4,a4,2
 454 0308 B387E700 		add	a5,a5,a4
 455              	.LVL47:
  28:test/buffer.cpp ****         head = (head + 1) % cap;
 456              		.loc 1 28 9 is_stmt 1
  28:test/buffer.cpp ****         head = (head + 1) % cap;
 457              		.loc 1 28 13 is_stmt 0
 458 030c 03C50700 		lbu	a0,0(a5)
 459 0310 97000000 		call	_Z4putcc@plt
 459      E7800000 
 460              	.LVL48:
  29:test/buffer.cpp ****     }
 461              		.loc 1 29 9 is_stmt 1
  29:test/buffer.cpp ****     }
 462              		.loc 1 29 17 is_stmt 0
 463 0318 83A70401 		lw	a5,16(s1)
  29:test/buffer.cpp ****     }
 464              		.loc 1 29 22
 465 031c 9B871700 		addiw	a5,a5,1
  29:test/buffer.cpp ****     }
 466              		.loc 1 29 29
 467 0320 03A70400 		lw	a4,0(s1)
  29:test/buffer.cpp ****     }
 468              		.loc 1 29 27
 469 0324 BBE7E702 		remw	a5,a5,a4
  29:test/buffer.cpp ****     }
 470              		.loc 1 29 14
 471 0328 23A8F400 		sw	a5,16(s1)
 472              	.LBE5:
  26:test/buffer.cpp ****         char ch = buffer[head];
 473              		.loc 1 26 5
 474 032c 6FF01FFC 		j	.L16
 475              	.L15:
GAS LISTING /tmp/ccCzNoWd.s 			page 12


  31:test/buffer.cpp ****     putc('\n');
 476              		.loc 1 31 5 is_stmt 1
  31:test/buffer.cpp ****     putc('\n');
 477              		.loc 1 31 9 is_stmt 0
 478 0330 13051002 		li	a0,33
 479 0334 97000000 		call	_Z4putcc@plt
 479      E7800000 
 480              	.LVL49:
  32:test/buffer.cpp **** 
 481              		.loc 1 32 5 is_stmt 1
  32:test/buffer.cpp **** 
 482              		.loc 1 32 9 is_stmt 0
 483 033c 1305A000 		li	a0,10
 484 0340 97000000 		call	_Z4putcc@plt
 484      E7800000 
 485              	.LVL50:
  34:test/buffer.cpp ****     sem_close(itemAvailable);
 486              		.loc 1 34 5 is_stmt 1
  34:test/buffer.cpp ****     sem_close(itemAvailable);
 487              		.loc 1 34 13 is_stmt 0
 488 0348 03B58400 		ld	a0,8(s1)
 489 034c 97000000 		call	_Z8mem_freePv@plt
 489      E7800000 
 490              	.LVL51:
  35:test/buffer.cpp ****     sem_close(spaceAvailable);
 491              		.loc 1 35 5 is_stmt 1
  35:test/buffer.cpp ****     sem_close(spaceAvailable);
 492              		.loc 1 35 14 is_stmt 0
 493 0354 03B50402 		ld	a0,32(s1)
 494 0358 97000000 		call	_Z9sem_closeP13SemaforKernel@plt
 494      E7800000 
 495              	.LVL52:
  36:test/buffer.cpp ****     sem_close(mutexTail);
 496              		.loc 1 36 5 is_stmt 1
  36:test/buffer.cpp ****     sem_close(mutexTail);
 497              		.loc 1 36 14 is_stmt 0
 498 0360 03B58401 		ld	a0,24(s1)
 499 0364 97000000 		call	_Z9sem_closeP13SemaforKernel@plt
 499      E7800000 
 500              	.LVL53:
  37:test/buffer.cpp ****     sem_close(mutexHead);
 501              		.loc 1 37 5 is_stmt 1
  37:test/buffer.cpp ****     sem_close(mutexHead);
 502              		.loc 1 37 14 is_stmt 0
 503 036c 03B50403 		ld	a0,48(s1)
 504 0370 97000000 		call	_Z9sem_closeP13SemaforKernel@plt
 504      E7800000 
 505              	.LVL54:
  38:test/buffer.cpp **** }
 506              		.loc 1 38 5 is_stmt 1
  38:test/buffer.cpp **** }
 507              		.loc 1 38 14 is_stmt 0
 508 0378 03B58402 		ld	a0,40(s1)
 509 037c 97000000 		call	_Z9sem_closeP13SemaforKernel@plt
 509      E7800000 
 510              	.LVL55:
 511              	.LBE4:
GAS LISTING /tmp/ccCzNoWd.s 			page 13


  39:test/buffer.cpp **** 
 512              		.loc 1 39 1
 513 0384 83308101 		ld	ra,24(sp)
 514              		.cfi_restore 1
 515 0388 03340101 		ld	s0,16(sp)
 516              		.cfi_restore 8
 517              		.cfi_def_cfa 2, 32
 518 038c 83348100 		ld	s1,8(sp)
 519              		.cfi_restore 9
 520              	.LVL56:
 521 0390 13010102 		addi	sp,sp,32
 522              		.cfi_def_cfa_offset 0
 523 0394 67800000 		jr	ra
 524              		.cfi_endproc
 525              	.LFE24:
 526              		.globl	__gxx_personality_v0
 527              		.section	.gcc_except_table,"a",@progbits
 528              	.LLSDA24:
 529 0000 FF       		.byte	0xff
 530 0001 FF       		.byte	0xff
 531 0002 03       		.byte	0x3
 532 0003 00       		.byte	0
 533              		.text
 535              		.globl	_ZN6BufferD1Ev
 536              		.set	_ZN6BufferD1Ev,_ZN6BufferD2Ev
 537              	.Letext0:
 538              		.file 2 "test/../h/../lib/hw.h"
 539              		.file 3 "test/../h/syscall_c.hpp"
 540              		.file 4 "test/buffer.hpp"
 541              		.file 5 "test/printing.hpp"
 2163              		.align	3
 2166              	DW.ref.__gxx_personality_v0:
 2167 0000 00000000 		.dword	__gxx_personality_v0
 2167      00000000 
 2168              		.ident	"GCC: (Ubuntu 9.4.0-1ubuntu1~20.04) 9.4.0"
 2169              		.section	.note.GNU-stack,"",@progbits
GAS LISTING /tmp/ccCzNoWd.s 			page 14

