GAS LISTING /tmp/ccVCSTFS.s 			page 1


   1              		.file	"ConsumerProducer_C_API_test.cpp"
   2              		.option pic
   3              		.option norelax
   4              		.text
   5              	.Ltext0:
   6              		.section	.rodata.str1.8,"aMS",@progbits,1
   7              		.align	3
   8              	.LC0:
   9 0000 3E3E3E20 		.string	">>> Keyboard producer started\n"
   9      4B657962 
   9      6F617264 
   9      2070726F 
   9      64756365 
  10 001f 00       		.align	3
  11              	.LC1:
  12 0020 3E3E3E20 		.string	">>> Keyboard producer ending (ESC pressed)\n"
  12      4B657962 
  12      6F617264 
  12      2070726F 
  12      64756365 
  13              		.text
  14              		.align	2
  16              	_ZL16producerKeyboardPv:
  17              	.LFB20:
  18              		.file 1 "test/ConsumerProducer_C_API_test.cpp"
   1:test/ConsumerProducer_C_API_test.cpp **** 
   2:test/ConsumerProducer_C_API_test.cpp **** #include "../h/syscall_c.hpp"
   3:test/ConsumerProducer_C_API_test.cpp **** #include "../lib/console.h"
   4:test/ConsumerProducer_C_API_test.cpp **** 
   5:test/ConsumerProducer_C_API_test.cpp **** 
   6:test/ConsumerProducer_C_API_test.cpp **** #include "buffer.hpp"
   7:test/ConsumerProducer_C_API_test.cpp **** 
   8:test/ConsumerProducer_C_API_test.cpp **** static sem_t waitForAll;
   9:test/ConsumerProducer_C_API_test.cpp **** 
  10:test/ConsumerProducer_C_API_test.cpp **** struct thread_data {
  11:test/ConsumerProducer_C_API_test.cpp ****     int id;
  12:test/ConsumerProducer_C_API_test.cpp ****     Buffer *buffer;
  13:test/ConsumerProducer_C_API_test.cpp ****     sem_t wait;
  14:test/ConsumerProducer_C_API_test.cpp **** };
  15:test/ConsumerProducer_C_API_test.cpp **** 
  16:test/ConsumerProducer_C_API_test.cpp **** static volatile int threadEnd = 0;
  17:test/ConsumerProducer_C_API_test.cpp **** 
  18:test/ConsumerProducer_C_API_test.cpp **** static void producerKeyboard(void *arg) {
  19              		.loc 1 18 41
  20              		.cfi_startproc
  21              	.LVL0:
  22 0000 130101FE 		addi	sp,sp,-32
  23              		.cfi_def_cfa_offset 32
  24 0004 233C1100 		sd	ra,24(sp)
  25 0008 23388100 		sd	s0,16(sp)
  26 000c 23349100 		sd	s1,8(sp)
  27 0010 23302101 		sd	s2,0(sp)
  28              		.cfi_offset 1, -8
  29              		.cfi_offset 8, -16
  30              		.cfi_offset 9, -24
  31              		.cfi_offset 18, -32
  32 0014 13040102 		addi	s0,sp,32
GAS LISTING /tmp/ccVCSTFS.s 			page 2


  33              		.cfi_def_cfa 8, 0
  34 0018 93040500 		mv	s1,a0
  19:test/ConsumerProducer_C_API_test.cpp ****     printString(">>> Keyboard producer started\n");
  35              		.loc 1 19 5
  36              		.loc 1 19 16 is_stmt 0
  37 001c 17050000 		lla	a0,.LC0
  37      13050500 
  38              	.LVL1:
  39 0024 97000000 		call	_Z11printStringPKc@plt
  39      E7800000 
  40              	.LVL2:
  20:test/ConsumerProducer_C_API_test.cpp ****     struct thread_data *data = (struct thread_data *) arg;
  41              		.loc 1 20 5 is_stmt 1
  21:test/ConsumerProducer_C_API_test.cpp **** 
  22:test/ConsumerProducer_C_API_test.cpp ****     int key;
  42              		.loc 1 22 5
  23:test/ConsumerProducer_C_API_test.cpp ****     int i = 0;
  43              		.loc 1 23 5
  44              		.loc 1 23 9 is_stmt 0
  45 002c 13090000 		li	s2,0
  46 0030 6F00C000 		j	.L2
  47              	.LVL3:
  48              	.L6:
  24:test/ConsumerProducer_C_API_test.cpp ****     while ((key = getc()) != '$') {
  25:test/ConsumerProducer_C_API_test.cpp **** //        printString(">>> Key pressed: ");
  26:test/ConsumerProducer_C_API_test.cpp **** //        printInt(key);
  27:test/ConsumerProducer_C_API_test.cpp **** //        printString("\n");
  28:test/ConsumerProducer_C_API_test.cpp ****         data->buffer->put(key);
  29:test/ConsumerProducer_C_API_test.cpp ****         i++;
  30:test/ConsumerProducer_C_API_test.cpp **** 
  31:test/ConsumerProducer_C_API_test.cpp ****         if (i % (10 * data->id) == 0) {
  32:test/ConsumerProducer_C_API_test.cpp ****             thread_dispatch();
  49              		.loc 1 32 13 is_stmt 1
  50              		.loc 1 32 28 is_stmt 0
  51 0034 97000000 		call	_Z15thread_dispatchv@plt
  51      E7800000 
  52              	.LVL4:
  53              	.L2:
  24:test/ConsumerProducer_C_API_test.cpp ****     while ((key = getc()) != '$') {
  54              		.loc 1 24 5 is_stmt 1
  24:test/ConsumerProducer_C_API_test.cpp ****     while ((key = getc()) != '$') {
  55              		.loc 1 24 27
  24:test/ConsumerProducer_C_API_test.cpp ****     while ((key = getc()) != '$') {
  56              		.loc 1 24 23 is_stmt 0
  57 003c 97000000 		call	_Z4getcv@plt
  57      E7800000 
  58              	.LVL5:
  24:test/ConsumerProducer_C_API_test.cpp ****     while ((key = getc()) != '$') {
  59              		.loc 1 24 17
  60 0044 9B050500 		sext.w	a1,a0
  61              	.LVL6:
  24:test/ConsumerProducer_C_API_test.cpp ****     while ((key = getc()) != '$') {
  62              		.loc 1 24 27
  63 0048 93074002 		li	a5,36
  64 004c 638AF502 		beq	a1,a5,.L3
  28:test/ConsumerProducer_C_API_test.cpp ****         i++;
  65              		.loc 1 28 9 is_stmt 1
GAS LISTING /tmp/ccVCSTFS.s 			page 3


  28:test/ConsumerProducer_C_API_test.cpp ****         i++;
  66              		.loc 1 28 26 is_stmt 0
  67 0050 03B58400 		ld	a0,8(s1)
  68 0054 97000000 		call	_ZN6Buffer3putEi@plt
  68      E7800000 
  69              	.LVL7:
  29:test/ConsumerProducer_C_API_test.cpp **** 
  70              		.loc 1 29 9 is_stmt 1
  29:test/ConsumerProducer_C_API_test.cpp **** 
  71              		.loc 1 29 10 is_stmt 0
  72 005c 1B071900 		addiw	a4,s2,1
  73 0060 1B090700 		sext.w	s2,a4
  74              	.LVL8:
  31:test/ConsumerProducer_C_API_test.cpp ****             thread_dispatch();
  75              		.loc 1 31 9 is_stmt 1
  31:test/ConsumerProducer_C_API_test.cpp ****             thread_dispatch();
  76              		.loc 1 31 29 is_stmt 0
  77 0064 83A60400 		lw	a3,0(s1)
  31:test/ConsumerProducer_C_API_test.cpp ****             thread_dispatch();
  78              		.loc 1 31 21
  79 0068 9B972600 		slliw	a5,a3,2
  80 006c BB87D700 		addw	a5,a5,a3
  81 0070 9B971700 		slliw	a5,a5,1
  31:test/ConsumerProducer_C_API_test.cpp ****             thread_dispatch();
  82              		.loc 1 31 15
  83 0074 BB67F702 		remw	a5,a4,a5
  31:test/ConsumerProducer_C_API_test.cpp ****             thread_dispatch();
  84              		.loc 1 31 9
  85 0078 E39207FC 		bnez	a5,.L2
  86 007c 6FF09FFB 		j	.L6
  87              	.LVL9:
  88              	.L3:
  33:test/ConsumerProducer_C_API_test.cpp ****         }
  34:test/ConsumerProducer_C_API_test.cpp ****     }
  35:test/ConsumerProducer_C_API_test.cpp ****     printString(">>> Keyboard producer ending (ESC pressed)\n");
  89              		.loc 1 35 5 is_stmt 1
  90              		.loc 1 35 16 is_stmt 0
  91 0080 17050000 		lla	a0,.LC1
  91      13050500 
  92 0088 97000000 		call	_Z11printStringPKc@plt
  92      E7800000 
  93              	.LVL10:
  36:test/ConsumerProducer_C_API_test.cpp **** 
  37:test/ConsumerProducer_C_API_test.cpp ****     threadEnd = 1;
  94              		.loc 1 37 5 is_stmt 1
  95              		.loc 1 37 15 is_stmt 0
  96 0090 93071000 		li	a5,1
  97 0094 17070000 		sw	a5,.LANCHOR0,a4
  97      2320F700 
  38:test/ConsumerProducer_C_API_test.cpp ****     data->buffer->put('!');
  98              		.loc 1 38 5 is_stmt 1
  99              		.loc 1 38 22 is_stmt 0
 100 009c 93051002 		li	a1,33
 101 00a0 03B58400 		ld	a0,8(s1)
 102 00a4 97000000 		call	_ZN6Buffer3putEi@plt
 102      E7800000 
 103              	.LVL11:
GAS LISTING /tmp/ccVCSTFS.s 			page 4


  39:test/ConsumerProducer_C_API_test.cpp **** 
  40:test/ConsumerProducer_C_API_test.cpp ****     sem_signal(data->wait);
 104              		.loc 1 40 5 is_stmt 1
 105              		.loc 1 40 15 is_stmt 0
 106 00ac 03B50401 		ld	a0,16(s1)
 107 00b0 97000000 		call	_Z10sem_signalP13SemaforKernel@plt
 107      E7800000 
 108              	.LVL12:
  41:test/ConsumerProducer_C_API_test.cpp **** }
 109              		.loc 1 41 1
 110 00b8 83308101 		ld	ra,24(sp)
 111              		.cfi_restore 1
 112 00bc 03340101 		ld	s0,16(sp)
 113              		.cfi_restore 8
 114              		.cfi_def_cfa 2, 32
 115 00c0 83348100 		ld	s1,8(sp)
 116              		.cfi_restore 9
 117              	.LVL13:
 118 00c4 03390100 		ld	s2,0(sp)
 119              		.cfi_restore 18
 120              	.LVL14:
 121 00c8 13010102 		addi	sp,sp,32
 122              		.cfi_def_cfa_offset 0
 123 00cc 67800000 		jr	ra
 124              		.cfi_endproc
 125              	.LFE20:
 127              		.section	.rodata.str1.8
 128 004c 00000000 		.align	3
 129              	.LC2:
 130 0050 3E3E3E20 		.string	">>> Producer "
 130      50726F64 
 130      75636572 
 130      2000
 131 005e 0000     		.align	3
 132              	.LC3:
 133 0060 20737461 		.string	" started\n"
 133      72746564 
 133      0A00
 134 006a 00000000 		.align	3
 134      0000
 135              	.LC4:
 136 0070 2066696E 		.string	" finished\n"
 136      69736865 
 136      640A00
 137              		.text
 138              		.align	2
 140              	_ZL8producerPv:
 141              	.LFB21:
  42:test/ConsumerProducer_C_API_test.cpp **** 
  43:test/ConsumerProducer_C_API_test.cpp **** static void producer(void *arg) {
 142              		.loc 1 43 33 is_stmt 1
 143              		.cfi_startproc
 144              	.LVL15:
 145 00d0 130101FE 		addi	sp,sp,-32
 146              		.cfi_def_cfa_offset 32
 147 00d4 233C1100 		sd	ra,24(sp)
 148 00d8 23388100 		sd	s0,16(sp)
GAS LISTING /tmp/ccVCSTFS.s 			page 5


 149 00dc 23349100 		sd	s1,8(sp)
 150 00e0 23302101 		sd	s2,0(sp)
 151              		.cfi_offset 1, -8
 152              		.cfi_offset 8, -16
 153              		.cfi_offset 9, -24
 154              		.cfi_offset 18, -32
 155 00e4 13040102 		addi	s0,sp,32
 156              		.cfi_def_cfa 8, 0
 157 00e8 93040500 		mv	s1,a0
  44:test/ConsumerProducer_C_API_test.cpp ****     struct thread_data *data = (struct thread_data *) arg;
 158              		.loc 1 44 5
 159              	.LVL16:
  45:test/ConsumerProducer_C_API_test.cpp ****     printString(">>> Producer "); printInt(data->id); printString(" started\n");
 160              		.loc 1 45 5
 161              		.loc 1 45 16 is_stmt 0
 162 00ec 17050000 		lla	a0,.LC2
 162      13050500 
 163              	.LVL17:
 164 00f4 97000000 		call	_Z11printStringPKc@plt
 164      E7800000 
 165              	.LVL18:
 166              		.loc 1 45 35 is_stmt 1
 167              		.loc 1 45 43 is_stmt 0
 168 00fc 13060000 		li	a2,0
 169 0100 9305A000 		li	a1,10
 170 0104 03A50400 		lw	a0,0(s1)
 171 0108 97000000 		call	_Z8printIntiii@plt
 171      E7800000 
 172              	.LVL19:
 173              		.loc 1 45 55 is_stmt 1
 174              		.loc 1 45 66 is_stmt 0
 175 0110 17050000 		lla	a0,.LC3
 175      13050500 
 176 0118 97000000 		call	_Z11printStringPKc@plt
 176      E7800000 
 177              	.LVL20:
  46:test/ConsumerProducer_C_API_test.cpp ****     int i = 0;
 178              		.loc 1 46 5 is_stmt 1
 179              		.loc 1 46 9 is_stmt 0
 180 0120 13090000 		li	s2,0
 181 0124 6F00C000 		j	.L8
 182              	.LVL21:
 183              	.L12:
  47:test/ConsumerProducer_C_API_test.cpp ****     while (!threadEnd) {
  48:test/ConsumerProducer_C_API_test.cpp ****         data->buffer->put(data->id + '0');
  49:test/ConsumerProducer_C_API_test.cpp ****         i++;
  50:test/ConsumerProducer_C_API_test.cpp **** 
  51:test/ConsumerProducer_C_API_test.cpp ****         if (i % (10 * data->id) == 0) {
  52:test/ConsumerProducer_C_API_test.cpp ****             thread_dispatch();
 184              		.loc 1 52 13 is_stmt 1
 185              		.loc 1 52 28 is_stmt 0
 186 0128 97000000 		call	_Z15thread_dispatchv@plt
 186      E7800000 
 187              	.LVL22:
 188              	.L8:
  47:test/ConsumerProducer_C_API_test.cpp ****     while (!threadEnd) {
 189              		.loc 1 47 5 is_stmt 1
GAS LISTING /tmp/ccVCSTFS.s 			page 6


  47:test/ConsumerProducer_C_API_test.cpp ****     while (!threadEnd) {
 190              		.loc 1 47 12
 191 0130 97070000 		lw	a5,.LANCHOR0
 191      83A70700 
 192 0138 639E0702 		bnez	a5,.L9
  48:test/ConsumerProducer_C_API_test.cpp ****         i++;
 193              		.loc 1 48 9
  48:test/ConsumerProducer_C_API_test.cpp ****         i++;
 194              		.loc 1 48 33 is_stmt 0
 195 013c 83A50400 		lw	a1,0(s1)
  48:test/ConsumerProducer_C_API_test.cpp ****         i++;
 196              		.loc 1 48 26
 197 0140 9B850503 		addiw	a1,a1,48
 198 0144 03B58400 		ld	a0,8(s1)
 199 0148 97000000 		call	_ZN6Buffer3putEi@plt
 199      E7800000 
 200              	.LVL23:
  49:test/ConsumerProducer_C_API_test.cpp **** 
 201              		.loc 1 49 9 is_stmt 1
  49:test/ConsumerProducer_C_API_test.cpp **** 
 202              		.loc 1 49 10 is_stmt 0
 203 0150 1B071900 		addiw	a4,s2,1
 204 0154 1B090700 		sext.w	s2,a4
 205              	.LVL24:
  51:test/ConsumerProducer_C_API_test.cpp ****             thread_dispatch();
 206              		.loc 1 51 9 is_stmt 1
  51:test/ConsumerProducer_C_API_test.cpp ****             thread_dispatch();
 207              		.loc 1 51 29 is_stmt 0
 208 0158 83A60400 		lw	a3,0(s1)
  51:test/ConsumerProducer_C_API_test.cpp ****             thread_dispatch();
 209              		.loc 1 51 21
 210 015c 9B972600 		slliw	a5,a3,2
 211 0160 BB87D700 		addw	a5,a5,a3
 212 0164 9B971700 		slliw	a5,a5,1
  51:test/ConsumerProducer_C_API_test.cpp ****             thread_dispatch();
 213              		.loc 1 51 15
 214 0168 BB67F702 		remw	a5,a4,a5
  51:test/ConsumerProducer_C_API_test.cpp ****             thread_dispatch();
 215              		.loc 1 51 9
 216 016c E39207FC 		bnez	a5,.L8
 217 0170 6FF09FFB 		j	.L12
 218              	.LVL25:
 219              	.L9:
  53:test/ConsumerProducer_C_API_test.cpp ****         }
  54:test/ConsumerProducer_C_API_test.cpp ****     }
  55:test/ConsumerProducer_C_API_test.cpp **** 
  56:test/ConsumerProducer_C_API_test.cpp ****     sem_signal(data->wait);
 220              		.loc 1 56 5 is_stmt 1
 221              		.loc 1 56 15 is_stmt 0
 222 0174 03B50401 		ld	a0,16(s1)
 223 0178 97000000 		call	_Z10sem_signalP13SemaforKernel@plt
 223      E7800000 
 224              	.LVL26:
  57:test/ConsumerProducer_C_API_test.cpp ****     printString(">>> Producer "); printInt(data->id); printString(" finished\n");
 225              		.loc 1 57 5 is_stmt 1
 226              		.loc 1 57 16 is_stmt 0
 227 0180 17050000 		lla	a0,.LC2
GAS LISTING /tmp/ccVCSTFS.s 			page 7


 227      13050500 
 228 0188 97000000 		call	_Z11printStringPKc@plt
 228      E7800000 
 229              	.LVL27:
 230              		.loc 1 57 35 is_stmt 1
 231              		.loc 1 57 43 is_stmt 0
 232 0190 13060000 		li	a2,0
 233 0194 9305A000 		li	a1,10
 234 0198 03A50400 		lw	a0,0(s1)
 235 019c 97000000 		call	_Z8printIntiii@plt
 235      E7800000 
 236              	.LVL28:
 237              		.loc 1 57 55 is_stmt 1
 238              		.loc 1 57 66 is_stmt 0
 239 01a4 17050000 		lla	a0,.LC4
 239      13050500 
 240 01ac 97000000 		call	_Z11printStringPKc@plt
 240      E7800000 
 241              	.LVL29:
  58:test/ConsumerProducer_C_API_test.cpp **** 
  59:test/ConsumerProducer_C_API_test.cpp **** }
 242              		.loc 1 59 1
 243 01b4 83308101 		ld	ra,24(sp)
 244              		.cfi_restore 1
 245 01b8 03340101 		ld	s0,16(sp)
 246              		.cfi_restore 8
 247              		.cfi_def_cfa 2, 32
 248 01bc 83348100 		ld	s1,8(sp)
 249              		.cfi_restore 9
 250              	.LVL30:
 251 01c0 03390100 		ld	s2,0(sp)
 252              		.cfi_restore 18
 253              	.LVL31:
 254 01c4 13010102 		addi	sp,sp,32
 255              		.cfi_def_cfa_offset 0
 256 01c8 67800000 		jr	ra
 257              		.cfi_endproc
 258              	.LFE21:
 260              		.section	.rodata.str1.8
 261 007b 00000000 		.align	3
 261      00
 262              	.LC5:
 263 0080 3E3E3E20 		.string	">>> Consumer started\n"
 263      436F6E73 
 263      756D6572 
 263      20737461 
 263      72746564 
 264 0096 0000     		.align	3
 265              	.LC6:
 266 0098 3E3E3E20 		.string	">>> Consumer finishing \342\200\224 draining buffer\n"
 266      436F6E73 
 266      756D6572 
 266      2066696E 
 266      69736869 
 267 00c4 00000000 		.align	3
 268              	.LC7:
 269 00c8 3E3E3E20 		.string	">>> Consumer finished\n"
GAS LISTING /tmp/ccVCSTFS.s 			page 8


 269      436F6E73 
 269      756D6572 
 269      2066696E 
 269      69736865 
 270              		.text
 271              		.align	2
 273              	_ZL8consumerPv:
 274              	.LFB22:
  60:test/ConsumerProducer_C_API_test.cpp **** 
  61:test/ConsumerProducer_C_API_test.cpp **** static void consumer(void *arg) {
 275              		.loc 1 61 33 is_stmt 1
 276              		.cfi_startproc
 277              	.LVL32:
 278 01cc 130101FD 		addi	sp,sp,-48
 279              		.cfi_def_cfa_offset 48
 280 01d0 23341102 		sd	ra,40(sp)
 281 01d4 23308102 		sd	s0,32(sp)
 282 01d8 233C9100 		sd	s1,24(sp)
 283 01dc 23382101 		sd	s2,16(sp)
 284 01e0 23343101 		sd	s3,8(sp)
 285              		.cfi_offset 1, -8
 286              		.cfi_offset 8, -16
 287              		.cfi_offset 9, -24
 288              		.cfi_offset 18, -32
 289              		.cfi_offset 19, -40
 290 01e4 13040103 		addi	s0,sp,48
 291              		.cfi_def_cfa 8, 0
 292 01e8 13090500 		mv	s2,a0
  62:test/ConsumerProducer_C_API_test.cpp ****     printString(">>> Consumer started\n");
 293              		.loc 1 62 5
 294              		.loc 1 62 16 is_stmt 0
 295 01ec 17050000 		lla	a0,.LC5
 295      13050500 
 296              	.LVL33:
 297 01f4 97000000 		call	_Z11printStringPKc@plt
 297      E7800000 
 298              	.LVL34:
  63:test/ConsumerProducer_C_API_test.cpp ****     struct thread_data *data = (struct thread_data *) arg;
 299              		.loc 1 63 5 is_stmt 1
  64:test/ConsumerProducer_C_API_test.cpp **** 
  65:test/ConsumerProducer_C_API_test.cpp ****     int i = 0;
 300              		.loc 1 65 5
 301              		.loc 1 65 9 is_stmt 0
 302 01fc 93090000 		li	s3,0
 303 0200 6F00C001 		j	.L14
 304              	.LVL35:
 305              	.L21:
 306              	.LBB2:
  66:test/ConsumerProducer_C_API_test.cpp ****     while (!threadEnd) {
  67:test/ConsumerProducer_C_API_test.cpp **** 
  68:test/ConsumerProducer_C_API_test.cpp ****         int key = data->buffer->get();
  69:test/ConsumerProducer_C_API_test.cpp ****         i++;
  70:test/ConsumerProducer_C_API_test.cpp **** 
  71:test/ConsumerProducer_C_API_test.cpp ****         putc(key);
  72:test/ConsumerProducer_C_API_test.cpp **** 
  73:test/ConsumerProducer_C_API_test.cpp ****         if (i % (5 * data->id) == 0) {
  74:test/ConsumerProducer_C_API_test.cpp ****             thread_dispatch();
GAS LISTING /tmp/ccVCSTFS.s 			page 9


 307              		.loc 1 74 13 is_stmt 1
 308              		.loc 1 74 28 is_stmt 0
 309 0204 97000000 		call	_Z15thread_dispatchv@plt
 309      E7800000 
 310              	.LVL36:
 311 020c 6F000005 		j	.L16
 312              	.LVL37:
 313              	.L22:
  75:test/ConsumerProducer_C_API_test.cpp ****         }
  76:test/ConsumerProducer_C_API_test.cpp **** 
  77:test/ConsumerProducer_C_API_test.cpp ****         if (i % 80 == 0) {
  78:test/ConsumerProducer_C_API_test.cpp ****             putc('\n');
 314              		.loc 1 78 13 is_stmt 1
 315              		.loc 1 78 17 is_stmt 0
 316 0210 1305A000 		li	a0,10
 317 0214 97000000 		call	_Z4putcc@plt
 317      E7800000 
 318              	.LVL38:
 319              	.L14:
 320              	.LBE2:
  66:test/ConsumerProducer_C_API_test.cpp ****     while (!threadEnd) {
 321              		.loc 1 66 5 is_stmt 1
  66:test/ConsumerProducer_C_API_test.cpp ****     while (!threadEnd) {
 322              		.loc 1 66 12
 323 021c 97070000 		lw	a5,.LANCHOR0
 323      83A70700 
 324 0224 63940704 		bnez	a5,.L15
 325              	.LBB3:
  68:test/ConsumerProducer_C_API_test.cpp ****         i++;
 326              		.loc 1 68 9
  68:test/ConsumerProducer_C_API_test.cpp ****         i++;
 327              		.loc 1 68 36 is_stmt 0
 328 0228 03358900 		ld	a0,8(s2)
 329 022c 97000000 		call	_ZN6Buffer3getEv@plt
 329      E7800000 
 330              	.LVL39:
  69:test/ConsumerProducer_C_API_test.cpp **** 
 331              		.loc 1 69 9 is_stmt 1
  69:test/ConsumerProducer_C_API_test.cpp **** 
 332              		.loc 1 69 10 is_stmt 0
 333 0234 9B841900 		addiw	s1,s3,1
 334 0238 9B890400 		sext.w	s3,s1
 335              	.LVL40:
  71:test/ConsumerProducer_C_API_test.cpp **** 
 336              		.loc 1 71 9 is_stmt 1
  71:test/ConsumerProducer_C_API_test.cpp **** 
 337              		.loc 1 71 13 is_stmt 0
 338 023c 1375F50F 		andi	a0,a0,0xff
 339              	.LVL41:
 340 0240 97000000 		call	_Z4putcc@plt
 340      E7800000 
 341              	.LVL42:
  73:test/ConsumerProducer_C_API_test.cpp ****             thread_dispatch();
 342              		.loc 1 73 9 is_stmt 1
  73:test/ConsumerProducer_C_API_test.cpp ****             thread_dispatch();
 343              		.loc 1 73 28 is_stmt 0
 344 0248 03270900 		lw	a4,0(s2)
GAS LISTING /tmp/ccVCSTFS.s 			page 10


  73:test/ConsumerProducer_C_API_test.cpp ****             thread_dispatch();
 345              		.loc 1 73 20
 346 024c 9B172700 		slliw	a5,a4,2
 347 0250 BB87E700 		addw	a5,a5,a4
  73:test/ConsumerProducer_C_API_test.cpp ****             thread_dispatch();
 348              		.loc 1 73 15
 349 0254 BBE7F402 		remw	a5,s1,a5
  73:test/ConsumerProducer_C_API_test.cpp ****             thread_dispatch();
 350              		.loc 1 73 9
 351 0258 E38607FA 		beqz	a5,.L21
 352              	.L16:
  77:test/ConsumerProducer_C_API_test.cpp ****             putc('\n');
 353              		.loc 1 77 9 is_stmt 1
  77:test/ConsumerProducer_C_API_test.cpp ****             putc('\n');
 354              		.loc 1 77 15 is_stmt 0
 355 025c 93070005 		li	a5,80
 356 0260 BBE4F402 		remw	s1,s1,a5
 357              	.LVL43:
  77:test/ConsumerProducer_C_API_test.cpp ****             putc('\n');
 358              		.loc 1 77 9
 359 0264 E39C04FA 		bnez	s1,.L14
 360 0268 6FF09FFA 		j	.L22
 361              	.L15:
 362              	.LBE3:
  79:test/ConsumerProducer_C_API_test.cpp ****         }
  80:test/ConsumerProducer_C_API_test.cpp ****     }
  81:test/ConsumerProducer_C_API_test.cpp ****     printString(">>> Consumer finishing — draining buffer\n");
 363              		.loc 1 81 5 is_stmt 1
 364              		.loc 1 81 16 is_stmt 0
 365 026c 17050000 		lla	a0,.LC6
 365      13050500 
 366 0274 97000000 		call	_Z11printStringPKc@plt
 366      E7800000 
 367              	.LVL44:
 368 027c 6F00C001 		j	.L19
 369              	.L23:
 370              	.LBB4:
  82:test/ConsumerProducer_C_API_test.cpp **** 
  83:test/ConsumerProducer_C_API_test.cpp ****     while (data->buffer->getCnt() > 0) {
  84:test/ConsumerProducer_C_API_test.cpp ****         int key = data->buffer->get();
 371              		.loc 1 84 9 is_stmt 1
 372              		.loc 1 84 36 is_stmt 0
 373 0280 03358900 		ld	a0,8(s2)
 374 0284 97000000 		call	_ZN6Buffer3getEv@plt
 374      E7800000 
 375              	.LVL45:
  85:test/ConsumerProducer_C_API_test.cpp ****         putc(key);
 376              		.loc 1 85 9 is_stmt 1
 377              		.loc 1 85 13 is_stmt 0
 378 028c 1375F50F 		andi	a0,a0,0xff
 379              	.LVL46:
 380 0290 97000000 		call	_Z4putcc@plt
 380      E7800000 
 381              	.LVL47:
 382              	.L19:
 383              	.LBE4:
  83:test/ConsumerProducer_C_API_test.cpp ****         int key = data->buffer->get();
GAS LISTING /tmp/ccVCSTFS.s 			page 11


 384              		.loc 1 83 5 is_stmt 1
  83:test/ConsumerProducer_C_API_test.cpp ****         int key = data->buffer->get();
 385              		.loc 1 83 35
  83:test/ConsumerProducer_C_API_test.cpp ****         int key = data->buffer->get();
 386              		.loc 1 83 32 is_stmt 0
 387 0298 03358900 		ld	a0,8(s2)
 388 029c 97000000 		call	_ZN6Buffer6getCntEv@plt
 388      E7800000 
 389              	.LVL48:
  83:test/ConsumerProducer_C_API_test.cpp ****         int key = data->buffer->get();
 390              		.loc 1 83 35
 391 02a4 E34EA0FC 		bgtz	a0,.L23
  86:test/ConsumerProducer_C_API_test.cpp ****     }
  87:test/ConsumerProducer_C_API_test.cpp **** 
  88:test/ConsumerProducer_C_API_test.cpp ****     sem_signal(data->wait);
 392              		.loc 1 88 5 is_stmt 1
 393              		.loc 1 88 15 is_stmt 0
 394 02a8 03350901 		ld	a0,16(s2)
 395 02ac 97000000 		call	_Z10sem_signalP13SemaforKernel@plt
 395      E7800000 
 396              	.LVL49:
  89:test/ConsumerProducer_C_API_test.cpp ****     printString(">>> Consumer finished\n");
 397              		.loc 1 89 5 is_stmt 1
 398              		.loc 1 89 16 is_stmt 0
 399 02b4 17050000 		lla	a0,.LC7
 399      13050500 
 400 02bc 97000000 		call	_Z11printStringPKc@plt
 400      E7800000 
 401              	.LVL50:
  90:test/ConsumerProducer_C_API_test.cpp **** }
 402              		.loc 1 90 1
 403 02c4 83308102 		ld	ra,40(sp)
 404              		.cfi_restore 1
 405 02c8 03340102 		ld	s0,32(sp)
 406              		.cfi_restore 8
 407              		.cfi_def_cfa 2, 48
 408 02cc 83348101 		ld	s1,24(sp)
 409              		.cfi_restore 9
 410 02d0 03390101 		ld	s2,16(sp)
 411              		.cfi_restore 18
 412              	.LVL51:
 413 02d4 83398100 		ld	s3,8(sp)
 414              		.cfi_restore 19
 415              	.LVL52:
 416 02d8 13010103 		addi	sp,sp,48
 417              		.cfi_def_cfa_offset 0
 418 02dc 67800000 		jr	ra
 419              		.cfi_endproc
 420              	.LFE22:
 422              		.section	.rodata.str1.8
 423 00df 00       		.align	3
 424              	.LC8:
 425 00e0 556E6573 		.string	"Unesite broj proizvodjaca?\n"
 425      69746520 
 425      62726F6A 
 425      2070726F 
 425      697A766F 
GAS LISTING /tmp/ccVCSTFS.s 			page 12


 426 00fc 00000000 		.align	3
 427              	.LC9:
 428 0100 556E6573 		.string	"Unesite velicinu bafera?\n"
 428      69746520 
 428      76656C69 
 428      63696E75 
 428      20626166 
 429 011a 00000000 		.align	3
 429      0000
 430              	.LC10:
 431 0120 42726F6A 		.string	"Broj proizvodjaca "
 431      2070726F 
 431      697A766F 
 431      646A6163 
 431      612000
 432 0133 00000000 		.align	3
 432      00
 433              	.LC11:
 434 0138 20692076 		.string	" i velicina bafera "
 434      656C6963 
 434      696E6120 
 434      62616665 
 434      72612000 
 435 014c 00000000 		.align	3
 436              	.LC12:
 437 0150 2E0A00   		.string	".\n"
 438 0153 00000000 		.align	3
 438      00
 439              	.LC13:
 440 0158 42726F6A 		.string	"Broj proizvodjaca ne sme biti manji od velicine bafera!\n"
 440      2070726F 
 440      697A766F 
 440      646A6163 
 440      61206E65 
 441 0191 00000000 		.align	3
 441      000000
 442              	.LC14:
 443 0198 42726F6A 		.string	"Broj proizvodjaca mora biti veci od nula!\n"
 443      2070726F 
 443      697A766F 
 443      646A6163 
 443      61206D6F 
 444 01c3 00000000 		.align	3
 444      00
 445              	.LC15:
 446 01c8 3E3E3E20 		.string	">>> Main dispatched threads, waiting for completion...\n"
 446      4D61696E 
 446      20646973 
 446      70617463 
 446      68656420 
 447              		.text
 448              		.align	2
 449              		.globl	_Z22producerConsumer_C_APIv
 451              	_Z22producerConsumer_C_APIv:
 452              	.LFB23:
  91:test/ConsumerProducer_C_API_test.cpp **** 
  92:test/ConsumerProducer_C_API_test.cpp **** void producerConsumer_C_API() {
GAS LISTING /tmp/ccVCSTFS.s 			page 13


 453              		.loc 1 92 31 is_stmt 1
 454              		.cfi_startproc
 455              		.cfi_personality 0x9b,DW.ref.__gxx_personality_v0
 456              		.cfi_lsda 0x1b,.LLSDA23
 457 02e0 130101F9 		addi	sp,sp,-112
 458              		.cfi_def_cfa_offset 112
 459 02e4 23341106 		sd	ra,104(sp)
 460 02e8 23308106 		sd	s0,96(sp)
 461 02ec 233C9104 		sd	s1,88(sp)
 462 02f0 23382105 		sd	s2,80(sp)
 463 02f4 23343105 		sd	s3,72(sp)
 464 02f8 23304105 		sd	s4,64(sp)
 465 02fc 233C5103 		sd	s5,56(sp)
 466 0300 23386103 		sd	s6,48(sp)
 467              		.cfi_offset 1, -8
 468              		.cfi_offset 8, -16
 469              		.cfi_offset 9, -24
 470              		.cfi_offset 18, -32
 471              		.cfi_offset 19, -40
 472              		.cfi_offset 20, -48
 473              		.cfi_offset 21, -56
 474              		.cfi_offset 22, -64
 475 0304 13040107 		addi	s0,sp,112
 476              		.cfi_def_cfa 8, 0
  93:test/ConsumerProducer_C_API_test.cpp ****     char input[30];
  94:test/ConsumerProducer_C_API_test.cpp ****     int n, threadNum;
  95:test/ConsumerProducer_C_API_test.cpp **** 
  96:test/ConsumerProducer_C_API_test.cpp ****     printString("Unesite broj proizvodjaca?\n");
  97:test/ConsumerProducer_C_API_test.cpp ****     getString(input, 30);
  98:test/ConsumerProducer_C_API_test.cpp ****     threadNum = stringToInt(input);
  99:test/ConsumerProducer_C_API_test.cpp **** 
 100:test/ConsumerProducer_C_API_test.cpp ****     printString("Unesite velicinu bafera?\n");
 101:test/ConsumerProducer_C_API_test.cpp ****     getString(input, 30);
 102:test/ConsumerProducer_C_API_test.cpp ****     n = stringToInt(input);
 103:test/ConsumerProducer_C_API_test.cpp **** 
 104:test/ConsumerProducer_C_API_test.cpp ****     printString("Broj proizvodjaca "); printInt(threadNum);
 105:test/ConsumerProducer_C_API_test.cpp ****     printString(" i velicina bafera "); printInt(n);
 106:test/ConsumerProducer_C_API_test.cpp ****     printString(".\n");
 107:test/ConsumerProducer_C_API_test.cpp **** 
 108:test/ConsumerProducer_C_API_test.cpp ****     if(threadNum > n) {
 109:test/ConsumerProducer_C_API_test.cpp ****         printString("Broj proizvodjaca ne sme biti manji od velicine bafera!\n");
 110:test/ConsumerProducer_C_API_test.cpp ****         return;
 111:test/ConsumerProducer_C_API_test.cpp ****     } else if (threadNum < 1) {
 112:test/ConsumerProducer_C_API_test.cpp ****         printString("Broj proizvodjaca mora biti veci od nula!\n");
 113:test/ConsumerProducer_C_API_test.cpp ****         return;
 114:test/ConsumerProducer_C_API_test.cpp ****     }
 115:test/ConsumerProducer_C_API_test.cpp **** 
 116:test/ConsumerProducer_C_API_test.cpp ****     Buffer *buffer = new Buffer(n);
 117:test/ConsumerProducer_C_API_test.cpp **** 
 118:test/ConsumerProducer_C_API_test.cpp ****     sem_open(&waitForAll, 0);
 119:test/ConsumerProducer_C_API_test.cpp **** 
 120:test/ConsumerProducer_C_API_test.cpp ****     thread_t threads[threadNum];
 121:test/ConsumerProducer_C_API_test.cpp ****     thread_t consumerThread;
 122:test/ConsumerProducer_C_API_test.cpp **** 
 123:test/ConsumerProducer_C_API_test.cpp ****     struct thread_data data[threadNum + 1];
 124:test/ConsumerProducer_C_API_test.cpp **** 
 125:test/ConsumerProducer_C_API_test.cpp ****     data[threadNum].id = threadNum;
GAS LISTING /tmp/ccVCSTFS.s 			page 14


 126:test/ConsumerProducer_C_API_test.cpp ****     data[threadNum].buffer = buffer;
 127:test/ConsumerProducer_C_API_test.cpp ****     data[threadNum].wait = waitForAll;
 128:test/ConsumerProducer_C_API_test.cpp ****     thread_create(&consumerThread, consumer, data + threadNum);
 129:test/ConsumerProducer_C_API_test.cpp **** 
 130:test/ConsumerProducer_C_API_test.cpp ****     for (int i = 0; i < threadNum; i++) {
 131:test/ConsumerProducer_C_API_test.cpp ****         data[i].id = i;
 132:test/ConsumerProducer_C_API_test.cpp ****         data[i].buffer = buffer;
 133:test/ConsumerProducer_C_API_test.cpp ****         data[i].wait = waitForAll;
 134:test/ConsumerProducer_C_API_test.cpp **** 
 135:test/ConsumerProducer_C_API_test.cpp ****         thread_create(threads + i,
 136:test/ConsumerProducer_C_API_test.cpp ****                       i > 0 ? producer : producerKeyboard,
 137:test/ConsumerProducer_C_API_test.cpp ****                       data + i);
 138:test/ConsumerProducer_C_API_test.cpp ****     }
 139:test/ConsumerProducer_C_API_test.cpp **** 
 140:test/ConsumerProducer_C_API_test.cpp ****     thread_dispatch();
 141:test/ConsumerProducer_C_API_test.cpp ****     printString(">>> Main dispatched threads, waiting for completion...\n");
 142:test/ConsumerProducer_C_API_test.cpp **** 
 143:test/ConsumerProducer_C_API_test.cpp ****     for (int i = 0; i <= threadNum; i++) {
 144:test/ConsumerProducer_C_API_test.cpp ****         sem_wait(waitForAll);
 145:test/ConsumerProducer_C_API_test.cpp ****     }
 146:test/ConsumerProducer_C_API_test.cpp **** 
 147:test/ConsumerProducer_C_API_test.cpp ****     sem_close(waitForAll);
 148:test/ConsumerProducer_C_API_test.cpp **** 
 149:test/ConsumerProducer_C_API_test.cpp ****     delete buffer;
 477              		.loc 1 149 18 is_stmt 0
 478 0308 130B0100 		mv	s6,sp
  93:test/ConsumerProducer_C_API_test.cpp ****     char input[30];
 479              		.loc 1 93 5 is_stmt 1
  94:test/ConsumerProducer_C_API_test.cpp **** 
 480              		.loc 1 94 5
  96:test/ConsumerProducer_C_API_test.cpp ****     getString(input, 30);
 481              		.loc 1 96 5
  96:test/ConsumerProducer_C_API_test.cpp ****     getString(input, 30);
 482              		.loc 1 96 16 is_stmt 0
 483 030c 17050000 		lla	a0,.LC8
 483      13050500 
 484              	.LEHB0:
 485 0314 97000000 		call	_Z11printStringPKc@plt
 485      E7800000 
 486              	.LVL53:
  97:test/ConsumerProducer_C_API_test.cpp ****     threadNum = stringToInt(input);
 487              		.loc 1 97 5 is_stmt 1
  97:test/ConsumerProducer_C_API_test.cpp ****     threadNum = stringToInt(input);
 488              		.loc 1 97 14 is_stmt 0
 489 031c 9305E001 		li	a1,30
 490 0320 930404FA 		addi	s1,s0,-96
 491 0324 13850400 		mv	a0,s1
 492 0328 97000000 		call	_Z9getStringPci@plt
 492      E7800000 
 493              	.LVL54:
  98:test/ConsumerProducer_C_API_test.cpp **** 
 494              		.loc 1 98 5 is_stmt 1
  98:test/ConsumerProducer_C_API_test.cpp **** 
 495              		.loc 1 98 28 is_stmt 0
 496 0330 13850400 		mv	a0,s1
 497 0334 97000000 		call	_Z11stringToIntPKc@plt
 497      E7800000 
GAS LISTING /tmp/ccVCSTFS.s 			page 15


 498              	.LVL55:
 499 033c 13090500 		mv	s2,a0
 500              	.LVL56:
 100:test/ConsumerProducer_C_API_test.cpp ****     getString(input, 30);
 501              		.loc 1 100 5 is_stmt 1
 100:test/ConsumerProducer_C_API_test.cpp ****     getString(input, 30);
 502              		.loc 1 100 16 is_stmt 0
 503 0340 17050000 		lla	a0,.LC9
 503      13050500 
 504 0348 97000000 		call	_Z11printStringPKc@plt
 504      E7800000 
 505              	.LVL57:
 101:test/ConsumerProducer_C_API_test.cpp ****     n = stringToInt(input);
 506              		.loc 1 101 5 is_stmt 1
 101:test/ConsumerProducer_C_API_test.cpp ****     n = stringToInt(input);
 507              		.loc 1 101 14 is_stmt 0
 508 0350 9305E001 		li	a1,30
 509 0354 13850400 		mv	a0,s1
 510 0358 97000000 		call	_Z9getStringPci@plt
 510      E7800000 
 511              	.LVL58:
 102:test/ConsumerProducer_C_API_test.cpp **** 
 512              		.loc 1 102 5 is_stmt 1
 102:test/ConsumerProducer_C_API_test.cpp **** 
 513              		.loc 1 102 20 is_stmt 0
 514 0360 13850400 		mv	a0,s1
 515 0364 97000000 		call	_Z11stringToIntPKc@plt
 515      E7800000 
 516              	.LVL59:
 517 036c 93040500 		mv	s1,a0
 518              	.LVL60:
 104:test/ConsumerProducer_C_API_test.cpp ****     printString(" i velicina bafera "); printInt(n);
 519              		.loc 1 104 5 is_stmt 1
 104:test/ConsumerProducer_C_API_test.cpp ****     printString(" i velicina bafera "); printInt(n);
 520              		.loc 1 104 16 is_stmt 0
 521 0370 17050000 		lla	a0,.LC10
 521      13050500 
 522 0378 97000000 		call	_Z11printStringPKc@plt
 522      E7800000 
 523              	.LVL61:
 104:test/ConsumerProducer_C_API_test.cpp ****     printString(" i velicina bafera "); printInt(n);
 524              		.loc 1 104 40 is_stmt 1
 104:test/ConsumerProducer_C_API_test.cpp ****     printString(" i velicina bafera "); printInt(n);
 525              		.loc 1 104 48 is_stmt 0
 526 0380 13060000 		li	a2,0
 527 0384 9305A000 		li	a1,10
 528 0388 13050900 		mv	a0,s2
 529 038c 97000000 		call	_Z8printIntiii@plt
 529      E7800000 
 530              	.LVL62:
 105:test/ConsumerProducer_C_API_test.cpp ****     printString(".\n");
 531              		.loc 1 105 5 is_stmt 1
 105:test/ConsumerProducer_C_API_test.cpp ****     printString(".\n");
 532              		.loc 1 105 16 is_stmt 0
 533 0394 17050000 		lla	a0,.LC11
 533      13050500 
 534 039c 97000000 		call	_Z11printStringPKc@plt
GAS LISTING /tmp/ccVCSTFS.s 			page 16


 534      E7800000 
 535              	.LVL63:
 105:test/ConsumerProducer_C_API_test.cpp ****     printString(".\n");
 536              		.loc 1 105 41 is_stmt 1
 105:test/ConsumerProducer_C_API_test.cpp ****     printString(".\n");
 537              		.loc 1 105 49 is_stmt 0
 538 03a4 13060000 		li	a2,0
 539 03a8 9305A000 		li	a1,10
 540 03ac 13850400 		mv	a0,s1
 541 03b0 97000000 		call	_Z8printIntiii@plt
 541      E7800000 
 542              	.LVL64:
 106:test/ConsumerProducer_C_API_test.cpp **** 
 543              		.loc 1 106 5 is_stmt 1
 106:test/ConsumerProducer_C_API_test.cpp **** 
 544              		.loc 1 106 16 is_stmt 0
 545 03b8 17050000 		lla	a0,.LC12
 545      13050500 
 546 03c0 97000000 		call	_Z11printStringPKc@plt
 546      E7800000 
 547              	.LVL65:
 108:test/ConsumerProducer_C_API_test.cpp ****         printString("Broj proizvodjaca ne sme biti manji od velicine bafera!\n");
 548              		.loc 1 108 5 is_stmt 1
 549 03c8 63C42403 		bgt	s2,s1,.L39
 111:test/ConsumerProducer_C_API_test.cpp ****         printString("Broj proizvodjaca mora biti veci od nula!\n");
 550              		.loc 1 111 12
 551 03cc 635C2003 		blez	s2,.L40
 116:test/ConsumerProducer_C_API_test.cpp **** 
 552              		.loc 1 116 5
 116:test/ConsumerProducer_C_API_test.cpp **** 
 553              		.loc 1 116 34 is_stmt 0
 554 03d0 13058003 		li	a0,56
 555 03d4 97000000 		call	_Znwm@plt
 555      E7800000 
 556              	.LVL66:
 557              	.LEHE0:
 558 03dc 130A0500 		mv	s4,a0
 559 03e0 93850400 		mv	a1,s1
 560              	.LEHB1:
 561 03e4 97000000 		call	_ZN6BufferC1Ei@plt
 561      E7800000 
 562              	.LVL67:
 563              	.LEHE1:
 564 03ec 6F000003 		j	.L41
 565              	.L39:
 109:test/ConsumerProducer_C_API_test.cpp ****         return;
 566              		.loc 1 109 9 is_stmt 1
 109:test/ConsumerProducer_C_API_test.cpp ****         return;
 567              		.loc 1 109 20 is_stmt 0
 568 03f0 17050000 		lla	a0,.LC13
 568      13050500 
 569              	.LEHB2:
 570 03f8 97000000 		call	_Z11printStringPKc@plt
 570      E7800000 
 571              	.LVL68:
 110:test/ConsumerProducer_C_API_test.cpp ****     } else if (threadNum < 1) {
 572              		.loc 1 110 9 is_stmt 1
GAS LISTING /tmp/ccVCSTFS.s 			page 17


 573 0400 6F004001 		j	.L26
 574              	.L40:
 112:test/ConsumerProducer_C_API_test.cpp ****         return;
 575              		.loc 1 112 9
 112:test/ConsumerProducer_C_API_test.cpp ****         return;
 576              		.loc 1 112 20 is_stmt 0
 577 0404 17050000 		lla	a0,.LC14
 577      13050500 
 578 040c 97000000 		call	_Z11printStringPKc@plt
 578      E7800000 
 579              	.LVL69:
 113:test/ConsumerProducer_C_API_test.cpp ****     }
 580              		.loc 1 113 9 is_stmt 1
 581              	.L26:
 582 0414 13010B00 		mv	sp,s6
 583 0418 6F000016 		j	.L24
 584              	.L41:
 585              	.LVL70:
 118:test/ConsumerProducer_C_API_test.cpp **** 
 586              		.loc 1 118 5 discriminator 3
 118:test/ConsumerProducer_C_API_test.cpp **** 
 587              		.loc 1 118 13 is_stmt 0 discriminator 3
 588 041c 93050000 		li	a1,0
 589 0420 17050000 		lla	a0,.LANCHOR0+8
 589      13050500 
 590 0428 97000000 		call	_Z8sem_openPP13SemaforKernelj@plt
 590      E7800000 
 591              	.LVL71:
 120:test/ConsumerProducer_C_API_test.cpp ****     thread_t consumerThread;
 592              		.loc 1 120 5 is_stmt 1 discriminator 3
 120:test/ConsumerProducer_C_API_test.cpp ****     thread_t consumerThread;
 593              		.loc 1 120 14 is_stmt 0 discriminator 3
 594 0430 93173900 		slli	a5,s2,3
 595 0434 9387F700 		addi	a5,a5,15
 596 0438 93F707FF 		andi	a5,a5,-16
 597 043c 3301F140 		sub	sp,sp,a5
 598 0440 930A0100 		mv	s5,sp
 599              	.LVL72:
 121:test/ConsumerProducer_C_API_test.cpp **** 
 600              		.loc 1 121 5 is_stmt 1 discriminator 3
 123:test/ConsumerProducer_C_API_test.cpp **** 
 601              		.loc 1 123 5 discriminator 3
 123:test/ConsumerProducer_C_API_test.cpp **** 
 602              		.loc 1 123 39 is_stmt 0 discriminator 3
 603 0444 1B071900 		addiw	a4,s2,1
 604              	.LVL73:
 123:test/ConsumerProducer_C_API_test.cpp **** 
 605              		.loc 1 123 24 discriminator 3
 606 0448 93171700 		slli	a5,a4,1
 607 044c B387E700 		add	a5,a5,a4
 608 0450 93973700 		slli	a5,a5,3
 609 0454 9387F700 		addi	a5,a5,15
 610 0458 93F707FF 		andi	a5,a5,-16
 611 045c 3301F140 		sub	sp,sp,a5
 612              	.LVL74:
 613 0460 93090100 		mv	s3,sp
 614              	.LVL75:
GAS LISTING /tmp/ccVCSTFS.s 			page 18


 125:test/ConsumerProducer_C_API_test.cpp ****     data[threadNum].buffer = buffer;
 615              		.loc 1 125 5 is_stmt 1 discriminator 3
 125:test/ConsumerProducer_C_API_test.cpp ****     data[threadNum].buffer = buffer;
 616              		.loc 1 125 24 is_stmt 0 discriminator 3
 617 0464 13161900 		slli	a2,s2,1
 618 0468 B3072601 		add	a5,a2,s2
 619 046c 93973700 		slli	a5,a5,3
 620 0470 B387F900 		add	a5,s3,a5
 621 0474 23A02701 		sw	s2,0(a5)
 126:test/ConsumerProducer_C_API_test.cpp ****     data[threadNum].wait = waitForAll;
 622              		.loc 1 126 5 is_stmt 1 discriminator 3
 126:test/ConsumerProducer_C_API_test.cpp ****     data[threadNum].wait = waitForAll;
 623              		.loc 1 126 28 is_stmt 0 discriminator 3
 624 0478 23B44701 		sd	s4,8(a5)
 127:test/ConsumerProducer_C_API_test.cpp ****     thread_create(&consumerThread, consumer, data + threadNum);
 625              		.loc 1 127 5 is_stmt 1 discriminator 3
 127:test/ConsumerProducer_C_API_test.cpp ****     thread_create(&consumerThread, consumer, data + threadNum);
 626              		.loc 1 127 26 is_stmt 0 discriminator 3
 627 047c 17070000 		ld	a4,.LANCHOR0+8
 627      03370700 
 628 0484 23B8E700 		sd	a4,16(a5)
 128:test/ConsumerProducer_C_API_test.cpp **** 
 629              		.loc 1 128 5 is_stmt 1 discriminator 3
 128:test/ConsumerProducer_C_API_test.cpp **** 
 630              		.loc 1 128 18 is_stmt 0 discriminator 3
 631 0488 13860700 		mv	a2,a5
 632 048c 97050000 		lla	a1,_ZL8consumerPv
 632      93850500 
 633 0494 130584F9 		addi	a0,s0,-104
 634 0498 97000000 		call	_Z13thread_createPP3TCBPFvPvES2_@plt
 634      E7800000 
 635              	.LVL76:
 636              	.LBB5:
 130:test/ConsumerProducer_C_API_test.cpp ****         data[i].id = i;
 637              		.loc 1 130 14 discriminator 3
 638 04a0 93040000 		li	s1,0
 639              	.LVL77:
 640 04a4 6F008002 		j	.L30
 641              	.LVL78:
 642              	.L36:
 135:test/ConsumerProducer_C_API_test.cpp ****                       i > 0 ? producer : producerKeyboard,
 643              		.loc 1 135 22
 644 04a8 97050000 		lla	a1,_ZL16producerKeyboardPv
 644      93850500 
 645              	.L29:
 137:test/ConsumerProducer_C_API_test.cpp ****     }
 646              		.loc 1 137 28 discriminator 4
 647 04b0 13961700 		slli	a2,a5,1
 648 04b4 3306F600 		add	a2,a2,a5
 649 04b8 13163600 		slli	a2,a2,3
 135:test/ConsumerProducer_C_API_test.cpp ****                       i > 0 ? producer : producerKeyboard,
 650              		.loc 1 135 22 discriminator 4
 651 04bc 3386C900 		add	a2,s3,a2
 652 04c0 97000000 		call	_Z13thread_createPP3TCBPFvPvES2_@plt
 652      E7800000 
 653              	.LVL79:
 130:test/ConsumerProducer_C_API_test.cpp ****         data[i].id = i;
GAS LISTING /tmp/ccVCSTFS.s 			page 19


 654              		.loc 1 130 5 is_stmt 1 discriminator 4
 655 04c8 9B841400 		addiw	s1,s1,1
 656              	.LVL80:
 657              	.L30:
 130:test/ConsumerProducer_C_API_test.cpp ****         data[i].id = i;
 658              		.loc 1 130 23 discriminator 1
 659 04cc 63D22405 		bge	s1,s2,.L28
 131:test/ConsumerProducer_C_API_test.cpp ****         data[i].buffer = buffer;
 660              		.loc 1 131 9
 131:test/ConsumerProducer_C_API_test.cpp ****         data[i].buffer = buffer;
 661              		.loc 1 131 20 is_stmt 0
 662 04d0 93971400 		slli	a5,s1,1
 663 04d4 B3879700 		add	a5,a5,s1
 664 04d8 93973700 		slli	a5,a5,3
 665 04dc B387F900 		add	a5,s3,a5
 666 04e0 23A09700 		sw	s1,0(a5)
 132:test/ConsumerProducer_C_API_test.cpp ****         data[i].wait = waitForAll;
 667              		.loc 1 132 9 is_stmt 1
 132:test/ConsumerProducer_C_API_test.cpp ****         data[i].wait = waitForAll;
 668              		.loc 1 132 24 is_stmt 0
 669 04e4 23B44701 		sd	s4,8(a5)
 133:test/ConsumerProducer_C_API_test.cpp **** 
 670              		.loc 1 133 9 is_stmt 1
 133:test/ConsumerProducer_C_API_test.cpp **** 
 671              		.loc 1 133 22 is_stmt 0
 672 04e8 17070000 		ld	a4,.LANCHOR0+8
 672      03370700 
 673 04f0 23B8E700 		sd	a4,16(a5)
 135:test/ConsumerProducer_C_API_test.cpp ****                       i > 0 ? producer : producerKeyboard,
 674              		.loc 1 135 9 is_stmt 1
 135:test/ConsumerProducer_C_API_test.cpp ****                       i > 0 ? producer : producerKeyboard,
 675              		.loc 1 135 33 is_stmt 0
 676 04f4 93870400 		mv	a5,s1
 135:test/ConsumerProducer_C_API_test.cpp ****                       i > 0 ? producer : producerKeyboard,
 677              		.loc 1 135 31
 678 04f8 13953400 		slli	a0,s1,3
 135:test/ConsumerProducer_C_API_test.cpp ****                       i > 0 ? producer : producerKeyboard,
 679              		.loc 1 135 22
 680 04fc 3385AA00 		add	a0,s5,a0
 681 0500 E35490FA 		blez	s1,.L36
 682 0504 97050000 		lla	a1,_ZL8producerPv
 682      93850500 
 683 050c 6FF05FFA 		j	.L29
 684              	.L28:
 685              	.LBE5:
 140:test/ConsumerProducer_C_API_test.cpp ****     printString(">>> Main dispatched threads, waiting for completion...\n");
 686              		.loc 1 140 5 is_stmt 1
 140:test/ConsumerProducer_C_API_test.cpp ****     printString(">>> Main dispatched threads, waiting for completion...\n");
 687              		.loc 1 140 20 is_stmt 0
 688 0510 97000000 		call	_Z15thread_dispatchv@plt
 688      E7800000 
 689              	.LVL81:
 141:test/ConsumerProducer_C_API_test.cpp **** 
 690              		.loc 1 141 5 is_stmt 1
 141:test/ConsumerProducer_C_API_test.cpp **** 
 691              		.loc 1 141 16 is_stmt 0
 692 0518 17050000 		lla	a0,.LC15
GAS LISTING /tmp/ccVCSTFS.s 			page 20


 692      13050500 
 693 0520 97000000 		call	_Z11printStringPKc@plt
 693      E7800000 
 694              	.LVL82:
 695              	.LBB6:
 143:test/ConsumerProducer_C_API_test.cpp ****         sem_wait(waitForAll);
 696              		.loc 1 143 14
 697 0528 93040000 		li	s1,0
 698              	.LVL83:
 699              	.L32:
 143:test/ConsumerProducer_C_API_test.cpp ****         sem_wait(waitForAll);
 700              		.loc 1 143 23 is_stmt 1 discriminator 1
 701 052c 634E9900 		bgt	s1,s2,.L31
 144:test/ConsumerProducer_C_API_test.cpp ****     }
 702              		.loc 1 144 9
 144:test/ConsumerProducer_C_API_test.cpp ****     }
 703              		.loc 1 144 17 is_stmt 0
 704 0530 17050000 		ld	a0,.LANCHOR0+8
 704      03350500 
 705 0538 97000000 		call	_Z8sem_waitP13SemaforKernel@plt
 705      E7800000 
 706              	.LVL84:
 143:test/ConsumerProducer_C_API_test.cpp ****         sem_wait(waitForAll);
 707              		.loc 1 143 5 is_stmt 1
 708 0540 9B841400 		addiw	s1,s1,1
 709              	.LVL85:
 710 0544 6FF09FFE 		j	.L32
 711              	.LVL86:
 712              	.L31:
 713              	.LBE6:
 147:test/ConsumerProducer_C_API_test.cpp **** 
 714              		.loc 1 147 5
 147:test/ConsumerProducer_C_API_test.cpp **** 
 715              		.loc 1 147 14 is_stmt 0
 716 0548 17050000 		ld	a0,.LANCHOR0+8
 716      03350500 
 717 0550 97000000 		call	_Z9sem_closeP13SemaforKernel@plt
 717      E7800000 
 718              	.LVL87:
 719              		.loc 1 149 5 is_stmt 1
 720              		.loc 1 149 18 is_stmt 0
 721 0558 630E0A00 		beqz	s4,.L33
 722              		.loc 1 149 12 discriminator 1
 723 055c 13050A00 		mv	a0,s4
 724 0560 97000000 		call	_ZN6BufferD1Ev@plt
 724      E7800000 
 725              	.LVL88:
 726 0568 13050A00 		mv	a0,s4
 727 056c 97000000 		call	_ZdlPv@plt
 727      E7800000 
 728              	.LVL89:
 729              	.L33:
 730 0574 13010B00 		mv	sp,s6
 731              	.LVL90:
 732              	.L24:
 150:test/ConsumerProducer_C_API_test.cpp **** 
 151:test/ConsumerProducer_C_API_test.cpp **** }
GAS LISTING /tmp/ccVCSTFS.s 			page 21


 733              		.loc 1 151 1
 734 0578 130104F9 		addi	sp,s0,-112
 735              		.cfi_remember_state
 736              		.cfi_def_cfa 2, 112
 737 057c 83308106 		ld	ra,104(sp)
 738              		.cfi_restore 1
 739 0580 03340106 		ld	s0,96(sp)
 740              		.cfi_restore 8
 741 0584 83348105 		ld	s1,88(sp)
 742              		.cfi_restore 9
 743 0588 03390105 		ld	s2,80(sp)
 744              		.cfi_restore 18
 745              	.LVL91:
 746 058c 83398104 		ld	s3,72(sp)
 747              		.cfi_restore 19
 748 0590 033A0104 		ld	s4,64(sp)
 749              		.cfi_restore 20
 750 0594 833A8103 		ld	s5,56(sp)
 751              		.cfi_restore 21
 752 0598 033B0103 		ld	s6,48(sp)
 753              		.cfi_restore 22
 754 059c 13010107 		addi	sp,sp,112
 755              		.cfi_def_cfa_offset 0
 756 05a0 67800000 		jr	ra
 757              	.LVL92:
 758              	.L37:
 759              		.cfi_restore_state
 760 05a4 93040500 		mv	s1,a0
 761              	.LVL93:
 116:test/ConsumerProducer_C_API_test.cpp **** 
 762              		.loc 1 116 34
 763 05a8 13050A00 		mv	a0,s4
 764 05ac 97000000 		call	_ZdlPv@plt
 764      E7800000 
 765              	.LVL94:
 766 05b4 13850400 		mv	a0,s1
 767 05b8 97000000 		call	_Unwind_Resume@plt
 767      E7800000 
 768              	.LVL95:
 769              	.LEHE2:
 770              		.cfi_endproc
 771              	.LFE23:
 772              		.globl	__gxx_personality_v0
 773              		.section	.gcc_except_table,"a",@progbits
 774              	.LLSDA23:
 775 0000 FF       		.byte	0xff
 776 0001 FF       		.byte	0xff
 777 0002 03       		.byte	0x3
 778 0003 27       		.byte	0x27
 779 0004 00000000 		.4byte	.LEHB0-.LFB23
 780 0008 00000000 		.4byte	.LEHE0-.LEHB0
 781 000c 00000000 		.4byte	0
 782 0010 00       		.byte	0
 783 0011 00000000 		.4byte	.LEHB1-.LFB23
 784 0015 00000000 		.4byte	.LEHE1-.LEHB1
 785 0019 00000000 		.4byte	.L37-.LFB23
 786 001d 00       		.byte	0
GAS LISTING /tmp/ccVCSTFS.s 			page 22


 787 001e 00000000 		.4byte	.LEHB2-.LFB23
 788 0022 00000000 		.4byte	.LEHE2-.LEHB2
 789 0026 00000000 		.4byte	0
 790 002a 00       		.byte	0
 791              		.text
 793              		.bss
 794              		.align	3
 795              		.set	.LANCHOR0,. + 0
 798              	_ZL9threadEnd:
 799 0000 00000000 		.zero	4
 800 0004 00000000 		.zero	4
 803              	_ZL10waitForAll:
 804 0008 00000000 		.zero	8
 804      00000000 
 805              		.text
 806              	.Letext0:
 807              		.file 2 "test/../h/../lib/hw.h"
 808              		.file 3 "test/../h/tcb.hpp"
 809              		.file 4 "test/../h/syscall_c.hpp"
 810              		.file 5 "test/buffer.hpp"
 811              		.file 6 "test/printing.hpp"
 3616              		.align	3
 3619              	DW.ref.__gxx_personality_v0:
 3620 0000 00000000 		.dword	__gxx_personality_v0
 3620      00000000 
 3621              		.ident	"GCC: (Ubuntu 9.4.0-1ubuntu1~20.04) 9.4.0"
 3622              		.section	.note.GNU-stack,"",@progbits
GAS LISTING /tmp/ccVCSTFS.s 			page 23

